Archive member included to satisfy reference by file (symbol)

c:/program files/microchip/xc32/v3.01/bin/bin/../../lib/gcc/pic32c/8.3.1/../../../../pic32c/lib/thumb/v6-m/nofp\libpic32c.a(data_init.o)
                              build/default/production/_ext/1171490990/startup_xc32.o (__pic32c_data_initialization)
c:/program files/microchip/xc32/v3.01/bin/bin/../../lib/gcc/pic32c/8.3.1/thumb/v6-m/nofp\libgcc.a(_udivsi3.o)
                              build/default/production/_ext/1824788055/sys.o (__aeabi_uidiv)
c:/program files/microchip/xc32/v3.01/bin/bin/../../lib/gcc/pic32c/8.3.1/thumb/v6-m/nofp\libgcc.a(_divsi3.o)
                              build/default/production/_ext/1824799587/radio_get_set.o (__aeabi_idiv)
c:/program files/microchip/xc32/v3.01/bin/bin/../../lib/gcc/pic32c/8.3.1/thumb/v6-m/nofp\libgcc.a(_dvmd_tls.o)
                              c:/program files/microchip/xc32/v3.01/bin/bin/../../lib/gcc/pic32c/8.3.1/thumb/v6-m/nofp\libgcc.a(_udivsi3.o) (__aeabi_idiv0)
c:/program files/microchip/xc32/v3.01/bin/bin/../../lib/gcc/pic32c/8.3.1/thumb/v6-m/nofp\libgcc.a(_aeabi_uldivmod.o)
                              build/default/production/_ext/1824796116/pmm.o (__aeabi_uldivmod)
c:/program files/microchip/xc32/v3.01/bin/bin/../../lib/gcc/pic32c/8.3.1/thumb/v6-m/nofp\libgcc.a(_fixunssfsi.o)
                              build/default/production/_ext/1824796116/pmm.o (__aeabi_f2uiz)
c:/program files/microchip/xc32/v3.01/bin/bin/../../lib/gcc/pic32c/8.3.1/thumb/v6-m/nofp\libgcc.a(_fixunssfdi.o)
                              build/default/production/_ext/1824796116/pmm.o (__aeabi_f2ulz)
c:/program files/microchip/xc32/v3.01/bin/bin/../../lib/gcc/pic32c/8.3.1/thumb/v6-m/nofp\libgcc.a(_udivmoddi4.o)
                              c:/program files/microchip/xc32/v3.01/bin/bin/../../lib/gcc/pic32c/8.3.1/thumb/v6-m/nofp\libgcc.a(_aeabi_uldivmod.o) (__udivmoddi4)
c:/program files/microchip/xc32/v3.01/bin/bin/../../lib/gcc/pic32c/8.3.1/thumb/v6-m/nofp\libgcc.a(addsf3.o)
                              build/default/production/_ext/508257091/plib_sercom1_i2c_master.o (__aeabi_fadd)
c:/program files/microchip/xc32/v3.01/bin/bin/../../lib/gcc/pic32c/8.3.1/thumb/v6-m/nofp\libgcc.a(divsf3.o)
                              build/default/production/_ext/508257091/plib_sercom1_i2c_master.o (__aeabi_fdiv)
c:/program files/microchip/xc32/v3.01/bin/bin/../../lib/gcc/pic32c/8.3.1/thumb/v6-m/nofp\libgcc.a(mulsf3.o)
                              build/default/production/_ext/1824796116/pmm.o (__aeabi_fmul)
c:/program files/microchip/xc32/v3.01/bin/bin/../../lib/gcc/pic32c/8.3.1/thumb/v6-m/nofp\libgcc.a(subsf3.o)
                              build/default/production/_ext/508257091/plib_sercom1_i2c_master.o (__aeabi_fsub)
c:/program files/microchip/xc32/v3.01/bin/bin/../../lib/gcc/pic32c/8.3.1/thumb/v6-m/nofp\libgcc.a(fixsfsi.o)
                              c:/program files/microchip/xc32/v3.01/bin/bin/../../lib/gcc/pic32c/8.3.1/thumb/v6-m/nofp\libgcc.a(_fixunssfsi.o) (__aeabi_f2iz)
c:/program files/microchip/xc32/v3.01/bin/bin/../../lib/gcc/pic32c/8.3.1/thumb/v6-m/nofp\libgcc.a(floatsisf.o)
                              build/default/production/_ext/1824799587/radio_get_set.o (__aeabi_i2f)
c:/program files/microchip/xc32/v3.01/bin/bin/../../lib/gcc/pic32c/8.3.1/thumb/v6-m/nofp\libgcc.a(floatunsisf.o)
                              build/default/production/_ext/1824796116/pmm.o (__aeabi_ui2f)
c:/program files/microchip/xc32/v3.01/bin/bin/../../lib/gcc/pic32c/8.3.1/thumb/v6-m/nofp\libgcc.a(muldf3.o)
                              c:/program files/microchip/xc32/v3.01/bin/bin/../../lib/gcc/pic32c/8.3.1/thumb/v6-m/nofp\libgcc.a(_fixunssfdi.o) (__aeabi_dmul)
c:/program files/microchip/xc32/v3.01/bin/bin/../../lib/gcc/pic32c/8.3.1/thumb/v6-m/nofp\libgcc.a(subdf3.o)
                              c:/program files/microchip/xc32/v3.01/bin/bin/../../lib/gcc/pic32c/8.3.1/thumb/v6-m/nofp\libgcc.a(_fixunssfdi.o) (__aeabi_dsub)
c:/program files/microchip/xc32/v3.01/bin/bin/../../lib/gcc/pic32c/8.3.1/thumb/v6-m/nofp\libgcc.a(floatunsidf.o)
                              c:/program files/microchip/xc32/v3.01/bin/bin/../../lib/gcc/pic32c/8.3.1/thumb/v6-m/nofp\libgcc.a(_fixunssfdi.o) (__aeabi_ui2d)
c:/program files/microchip/xc32/v3.01/bin/bin/../../lib/gcc/pic32c/8.3.1/thumb/v6-m/nofp\libgcc.a(extendsfdf2.o)
                              c:/program files/microchip/xc32/v3.01/bin/bin/../../lib/gcc/pic32c/8.3.1/thumb/v6-m/nofp\libgcc.a(_fixunssfdi.o) (__aeabi_f2d)
c:/program files/microchip/xc32/v3.01/bin/bin/../../lib/gcc/pic32c/8.3.1/thumb/v6-m/nofp\libgcc.a(_arm_cmpsf2.o)
                              c:/program files/microchip/xc32/v3.01/bin/bin/../../lib/gcc/pic32c/8.3.1/thumb/v6-m/nofp\libgcc.a(_fixunssfsi.o) (__aeabi_fcmpge)
c:/program files/microchip/xc32/v3.01/bin/bin/../../lib/gcc/pic32c/8.3.1/thumb/v6-m/nofp\libgcc.a(_clzsi2.o)
                              c:/program files/microchip/xc32/v3.01/bin/bin/../../lib/gcc/pic32c/8.3.1/thumb/v6-m/nofp\libgcc.a(addsf3.o) (__clzsi2)
c:/program files/microchip/xc32/v3.01/bin/bin/../../lib/gcc/pic32c/8.3.1/thumb/v6-m/nofp\libgcc.a(_clzdi2.o)
                              c:/program files/microchip/xc32/v3.01/bin/bin/../../lib/gcc/pic32c/8.3.1/thumb/v6-m/nofp\libgcc.a(_udivmoddi4.o) (__clzdi2)
c:/program files/microchip/xc32/v3.01/bin/bin/../../lib/gcc/pic32c/8.3.1/thumb/v6-m/nofp\libgcc.a(_fixunsdfsi.o)
                              c:/program files/microchip/xc32/v3.01/bin/bin/../../lib/gcc/pic32c/8.3.1/thumb/v6-m/nofp\libgcc.a(_fixunssfdi.o) (__aeabi_d2uiz)
c:/program files/microchip/xc32/v3.01/bin/bin/../../lib/gcc/pic32c/8.3.1/thumb/v6-m/nofp\libgcc.a(eqsf2.o)
                              c:/program files/microchip/xc32/v3.01/bin/bin/../../lib/gcc/pic32c/8.3.1/thumb/v6-m/nofp\libgcc.a(_arm_cmpsf2.o) (__eqsf2)
c:/program files/microchip/xc32/v3.01/bin/bin/../../lib/gcc/pic32c/8.3.1/thumb/v6-m/nofp\libgcc.a(gesf2.o)
                              c:/program files/microchip/xc32/v3.01/bin/bin/../../lib/gcc/pic32c/8.3.1/thumb/v6-m/nofp\libgcc.a(_arm_cmpsf2.o) (__gesf2)
c:/program files/microchip/xc32/v3.01/bin/bin/../../lib/gcc/pic32c/8.3.1/thumb/v6-m/nofp\libgcc.a(lesf2.o)
                              c:/program files/microchip/xc32/v3.01/bin/bin/../../lib/gcc/pic32c/8.3.1/thumb/v6-m/nofp\libgcc.a(_arm_cmpsf2.o) (__lesf2)
c:/program files/microchip/xc32/v3.01/bin/bin/../../lib/gcc/pic32c/8.3.1/thumb/v6-m/nofp\libgcc.a(fixdfsi.o)
                              c:/program files/microchip/xc32/v3.01/bin/bin/../../lib/gcc/pic32c/8.3.1/thumb/v6-m/nofp\libgcc.a(_fixunsdfsi.o) (__aeabi_d2iz)
c:/program files/microchip/xc32/v3.01/bin/bin/../../lib/gcc/pic32c/8.3.1/thumb/v6-m/nofp\libgcc.a(_arm_cmpdf2.o)
                              c:/program files/microchip/xc32/v3.01/bin/bin/../../lib/gcc/pic32c/8.3.1/thumb/v6-m/nofp\libgcc.a(_fixunsdfsi.o) (__aeabi_dcmpge)
c:/program files/microchip/xc32/v3.01/bin/bin/../../lib/gcc/pic32c/8.3.1/thumb/v6-m/nofp\libgcc.a(eqdf2.o)
                              c:/program files/microchip/xc32/v3.01/bin/bin/../../lib/gcc/pic32c/8.3.1/thumb/v6-m/nofp\libgcc.a(_arm_cmpdf2.o) (__eqdf2)
c:/program files/microchip/xc32/v3.01/bin/bin/../../lib/gcc/pic32c/8.3.1/thumb/v6-m/nofp\libgcc.a(gedf2.o)
                              c:/program files/microchip/xc32/v3.01/bin/bin/../../lib/gcc/pic32c/8.3.1/thumb/v6-m/nofp\libgcc.a(_arm_cmpdf2.o) (__gedf2)
c:/program files/microchip/xc32/v3.01/bin/bin/../../lib/gcc/pic32c/8.3.1/thumb/v6-m/nofp\libgcc.a(ledf2.o)
                              c:/program files/microchip/xc32/v3.01/bin/bin/../../lib/gcc/pic32c/8.3.1/thumb/v6-m/nofp\libgcc.a(_arm_cmpdf2.o) (__ledf2)
c:/program files/microchip/xc32/v3.01/bin/bin/../../lib/gcc/pic32c/8.3.1/../../../../pic32c/lib/thumb/v6-m/nofp\libc_nano.a(lib_a-init.o)
                              build/default/production/_ext/1171490990/startup_xc32.o (__libc_init_array)
c:/program files/microchip/xc32/v3.01/bin/bin/../../lib/gcc/pic32c/8.3.1/../../../../pic32c/lib/thumb/v6-m/nofp\libc_nano.a(lib_a-memcpy-stub.o)
                              build/default/production/_ext/2120447010/lorawan_mband_eu.o (memcpy)
c:/program files/microchip/xc32/v3.01/bin/bin/../../lib/gcc/pic32c/8.3.1/../../../../pic32c/lib/thumb/v6-m/nofp\libc_nano.a(lib_a-memset.o)
                              build/default/production/_ext/2120447010/lorawan_mband_eu.o (memset)

Microchip PIC32 Memory-Usage Report

ROM Program-Memory Usage
section                    address  length [bytes]      (dec)  Description
-------                 ----------  -------------------------  -----------
.vectors                         0           0xb0         176   
.text                         0xb0           0x20          32  App's exec code 
.ARM.exidx                    0xd0            0x8           8   
.text                         0xd8          0xc18        3096  App's exec code 
.text.Radio_WriteConfig      0xcf0          0x428        1064   
.text                       0x1118          0x348         840  App's exec code 
.text.RADIO_RxDoneHandl     0x1460          0x2bc         700   
.text                       0x171c          0x400        1024  App's exec code 
.text.SERCOM4_SPI_Write     0x1b1c          0x1c0         448   
.dinit                      0x1cdc          0x1c0         448   
.text.RADIO_InitDefault     0x1e9c          0x1bc         444   
.text                       0x2058          0x1a4         420  App's exec code 
.text.RADIO_TxHandler       0x21fc          0x164         356   
.text.RADIO_FSKPayloadR     0x2360          0x144         324   
.text.CLOCK_Initialize      0x24a4          0x13c         316   
.text.RADIO_RxHandler       0x25e0          0x128         296   
.text                       0x2708          0x114         276  App's exec code 
.text.RADIO_TxDoneHandl     0x281c           0xe0         224   
.text.APP_Tasks             0x28fc           0xe0         224   
.text                       0x29dc          0x1bc         444  App's exec code 
.text.Radio_WriteMode       0x2b98           0xd6         214   
.text.EVSYS_Initialize      0x2c6e            0x2           2   
.text.HAL_RadioInit         0x2c70           0xd4         212   
.text.PMM_Sleep             0x2d44           0xc4         196   
.text.RADIO_FSKFifoLeve     0x2e08           0xb4         180   
.text.SwTimerStart          0x2ebc           0xa4         164   
.text                       0x2f60           0xa4         164  App's exec code 
.text.EIC_Initialize        0x3004           0xa0         160   
.text.SystemTimerSync       0x30a4           0x9c         156   
.text                       0x3140          0x12c         300  App's exec code 
.text.__pic32c_data_ini     0x326c           0x90         144   
.text.Radio_LBTScanTime     0x32fc           0x88         136   
.text                       0x3384          0x178         376  App's exec code 
.text.RADIO_DIO0            0x34fc           0x78         120   
.text.hwTimerIrqHandler     0x3574           0x74         116   
.text.RADIO_DIO1            0x35e8           0x74         116   
.text                       0x365c           0x74         116  App's exec code 
.text.RADIO_RxDone          0x36d0           0x70         112   
.text.SwTimerUpdate         0x3740           0x6c         108   
.text.RADIO_FSKPacketSe     0x37ac           0x6c         108   
.text                       0x3818           0x6c         108  App's exec code 
.text.PMM_Wakeup            0x3884           0x68         104   
.text.RADIO_TaskHandler     0x38ec           0x68         104   
.text.RADIO_TxDone          0x3954           0x68         104   
.text.SYSTEM_RunTasks       0x39bc           0x64         100   
.text.RADIO_FSKFifoEmpt     0x3a20           0x60          96   
.text                       0x3a80           0x60          96  App's exec code 
.text.RADIO_ScanHandler     0x3ae0           0x5c          92   
.text.RADIO_Init            0x3b3c           0x58          88   
.text.SYS_Initialize        0x3b94           0x58          88   
.text.RADIO_DIO2            0x3bec           0x56          86   
.text.RSTC_Initialize       0x3c42            0x2           2   
.text.SwTimerReset          0x3c44           0x54          84   
.text.ADC_Initialize        0x3c98           0x54          84   
.text.SUPC_Initialize       0x3cec           0x54          84   
.text.APP_Initialize        0x3d40           0x54          84   
.text.MlsAppSleep           0x3d94           0x54          84   
.text.PORT_Initialize       0x3de8           0x50          80   
.text                       0x3e38           0x50          80  App's exec code 
.text.SwTimerNextExpiry     0x3e88           0x4c          76   
.text.Radio_WatchdogTim     0x3ed4           0x4c          76   
.text                       0x3f20           0x48          72  App's exec code 
.text.EIC_InterruptHand     0x3f68           0x48          72   
.text.Reset_Handler         0x3fb0           0x48          72   
.text.__libc_init_array     0x3ff8           0x48          72   
.text.SwTimersExecute       0x4040           0x44          68   
.text.RADIO_FHSSChangeC     0x4084           0x44          68   
.text.Radio_WriteFreque     0x40c8           0x44          68   
.text.TC0_CompareInitia     0x410c           0x44          68   
.text.RADIO_FrameWrite      0x4150           0x40          64   
.text.SwTimerInterrupt      0x4190           0x40          64   
.text                       0x41d0           0x80         128  App's exec code 
.rodata                     0x4250           0x40          64  Read-only const 
.text                       0x4290           0x40          64  App's exec code 
.rodata                     0x42d0           0x40          64  Read-only const 
.text.RADIO_FrameRead       0x4310           0x3c          60   
.text.SystemTimerSuspen     0x434c           0x3c          60   
.text.NVIC_Initialize       0x4388           0x3c          60   
.text.readMouseTraps        0x43c4           0x3c          60   
.text                       0x4400           0x78         120  App's exec code 
.text.delay_init            0x4478           0x34          52   
.text.Radio_EnableRfCon     0x44ac           0x34          52   
.text.Radio_DisableRfCo     0x44e0           0x34          52   
.text.RADIO_RxTimeout       0x4514           0x34          52   
.text.HAL_RadioDeInit       0x4548           0x30          48   
.text.delay_us              0x4578           0x30          48   
.text.delay_ms              0x45a8           0x30          48   
.text                       0x45d8           0x30          48  App's exec code 
.text.PM_Initialize         0x4608           0x2e          46   
.text.NonMaskableInt_Ha     0x4636            0x2           2   
.text.RADIO_Reset           0x4638           0x2c          44   
.text.HAL_RegisterDioIn     0x4664           0x2c          44   
.text.Radio_RxFSKTimeou     0x4690           0x2c          44   
.text.Radio_SetClockInp     0x46bc           0x2c          44   
.text.RTC_Initialize        0x46e8           0x2c          44   
.text.RTC_InterruptHand     0x4714           0x2c          44   
.text.SERCOM4_SPI_Initi     0x4740           0x2c          44   
.text.RADIO_RegisterWri     0x476c           0x28          40   
.text.HAL_EnableRFCtrl      0x4794           0x28          40   
.text.SwTimerCreate         0x47bc           0x28          40   
.text.RADIO_DIO3            0x47e4           0x28          40   
.text.RADIO_DIO4            0x480c           0x28          40   
.text.RADIO_DIO5            0x4834           0x28          40   
.text.RADIO_FSKSyncAddr     0x485c           0x28          40   
.text.EIC_CallbackRegis     0x4884           0x28          40   
.text.TC0_Compare32bitC     0x48ac           0x28          40   
.text.HAL_SPISend           0x48d4           0x24          36   
.text.RADIO_RegisterRea     0x48f8           0x24          36   
.text.SleepTimerStart       0x491c           0x24          36   
.text.MlsAppSleepCallba     0x4940           0x24          36   
.text.RADIO_UnhandledIn     0x4964           0x22          34   
.text.HardFault_Handler     0x4986            0x2           2   
.text.HAL_RadioDIO2Call     0x4988           0x20          32   
.text.HAL_RadioDIO1Call     0x49a8           0x20          32   
.text.HAL_RadioDIO0Call     0x49c8           0x20          32   
.text.HAL_Radio_resourc     0x49e8           0x20          32   
.text.SwTimerStop           0x4a08           0x20          32   
.text.RADIO_getMappingA     0x4a28           0x20          32   
.text.radioPostTask         0x4a48           0x20          32   
.text.SwTimerGetTime        0x4a68           0x1c          28   
.text.SYSTEM_PostTask       0x4a84           0x1c          28   
.text.ADC_ConversionSta     0x4aa0           0x1c          28   
.text.RTC_Timer32Start      0x4abc           0x1c          28   
.text.SYSTICK_TimerInit     0x4ad8           0x1c          28   
.text.TC0_CompareStart      0x4af4           0x1c          28   
.text.TC0_CompareStop       0x4b10           0x1c          28   
.text.MlsAppResourceIni     0x4b2c           0x1c          28   
.text.HAL_DisableRFCtrl     0x4b48           0x18          24   
.text.HAL_TCXOPowerOn       0x4b60           0x18          24   
.text.HAL_Sleep             0x4b78           0x18          24   
.text.Radio_ResetClockI     0x4b90           0x18          24   
.text.ADC_Enable            0x4ba8           0x18          24   
.text.ADC_Disable           0x4bc0           0x18          24   
.text.TC0_Compare32bitM     0x4bd8           0x18          24   
.text                       0x4bf0           0x18          24  App's exec code 
.text.Radio_ReadFSKRssi     0x4c08           0x16          22   
.text.Dummy_Handler         0x4c1e            0x2           2   
.text.system_leave_crit     0x4c20           0x14          20   
.text.SYSTEM_ReadyToSle     0x4c34           0x14          20   
.rodata.taskHandlers        0x4c48           0x14          20   
.rodata.radioTaskHandle     0x4c5c           0x14          20   
.text.NVIC_INT_Restore      0x4c70           0x14          20   
.text.PM_StandbyModeEnt     0x4c84           0x14          20   
.text.PM_BackupModeEnte     0x4c98           0x14          20   
.text.RTC_Timer32Counte     0x4cac           0x14          20   
.text.RTC_Timer32Compar     0x4cc0           0x14          20   
.text.RTC_Timer32Counte     0x4cd4           0x14          20   
.text.SYSTICK_TimerStar     0x4ce8           0x14          20   
.text.TC0_Compare32bitC     0x4cfc           0x14          20   
.rodata.APP_Tasks           0x4d10           0x14          20   
.text.NVIC_INT_Disable      0x4d24           0x12          18   
.text.Dummy_App_Func        0x4d36            0x2           2   
.text.HAL_TCXOPowerOff      0x4d38           0x10          16   
.text.SleepTimerInit        0x4d48           0x10          16   
.text.system_enter_crit     0x4d58           0x10          16   
.text.RADIO_SetCallback     0x4d68           0x10          16   
.text.ADC_ConversionSeq     0x4d78           0x10          16   
.text.EIC_InterruptEnab     0x4d88           0x10          16   
.text.EIC_InterruptDisa     0x4d98           0x10          16   
.text.SUPC_DisableBod       0x4da8           0x10          16   
.text.SYSTICK_TimerPeri     0x4db8           0x10          16   
.text.MlsAppResourceDei     0x4dc8           0x10          16   
.text.trapTriggerCallba     0x4dd8            0xe          14   
.text.main                  0x4de6            0xe          14   
.text.SleepTimerStop        0x4df4            0xc          12   
.text.RADIO_GetState        0x4e00            0xc          12   
.text.ADC_ConversionRes     0x4e0c            0xc          12   
.text.ADC_InterruptsCle     0x4e18            0xc          12   
.text.NVMCTRL_Initializ     0x4e24            0xc          12   
.text.PORT_GroupWrite       0x4e30            0xc          12   
.text.RTC_Timer32Interr     0x4e3c            0xc          12   
.text.RTC_Timer32Interr     0x4e48            0xc          12   
.text.RTC_Timer32Callba     0x4e54            0xc          12   
.text.SYSTICK_TimerPeri     0x4e60            0xc          12   
.text.TC0_CompareCallba     0x4e6c            0xc          12   
.text.SYS_Tasks             0x4e78            0xc          12   
.text.HAL_DisbleDIO0Int     0x4e84            0xa          10   
.text.TIMER_TaskHandler     0x4e8e            0xa          10   
.text.SleepTimerGetElap     0x4e98            0x8           8   
.text.SystemBlockingWai     0x4ea0            0x8           8   
.text.NVIC_INT_Enable       0x4ea8            0x8           8   
.text.SYS_INT_Enable        0x4eb0            0x8           8   
.text.SYS_INT_Disable       0x4eb8            0x8           8   
.text.SYS_INT_Restore       0x4ec0            0x8           8   
.text.SYSTICK_TimerFreq     0x4ec8            0x6           6   
.text.HAL_GetRadioClkSt     0x4ece            0x4           4   
.text.HAL_GetRadioClkSr     0x4ed2            0x4           4   
.text                       0x4ed8            0x4           4  App's exec code 
      Total ROM used  :      0x4eda       20186  7.7% of 0x40000
        --------------------------------------------------------------------------
         Total Program Memory used  :      0x4eda       20186  7.7% of 0x40000
        --------------------------------------------------------------------------


RAM Data-Memory Usage
section                    address  length [bytes]      (dec)  Description
-------                 ----------  -------------------------  -----------
.bss.swTimers           0x20000000          0x190         400   
.bss.radioBuffer        0x20000190          0x10f         271   
.bss.interrupt_flag     0x2000029f            0x1           1   
.bss.eicCallbackObject  0x200002a0           0xc0         192   
.bss.radioConfiguration 0x20000360           0x5c          92   
.bss                    0x200003bc           0x1c          28  Uninitialized data 
.bss.rtcObj             0x200003d8            0xc          12   
.bss.defaultSleep       0x200003e4            0xc          12   
.bss.sysTimeLastKnown   0x200003f0            0x8           8   
.bss.timeOnAir          0x200003f8            0x8           8   
.bss.TC0_CallbackObject 0x20000400            0x8           8   
.bss.interruptHandlerDi 0x20000408            0x4           4   
.bss.interruptHandlerDi 0x2000040c            0x4           4   
.bss.interruptHandlerDi 0x20000410            0x4           4   
.data.cycles_per_ms     0x20000414            0x4           4   
.data.cycles_per_us     0x20000418            0x4           4   
.bss.sleepReq           0x2000041c            0x4           4   
.bss.compareValue       0x20000420            0x4           4   
.bss.currentCount       0x20000424            0x4           4   
.bss.lastCount          0x20000428            0x4           4   
.bss.sysTimeOvf         0x2000042c            0x4           4   
.bss.transmitBufferPtr  0x20000430            0x4           4   
.bss.appData            0x20000434            0x4           4   
.bss.mlsAppSleepWakeupC 0x20000438            0x4           4   
.bss                    0x2000043c            0x4           4  Uninitialized data 
.bss.radioEvents        0x20000440            0x2           2   
.bss.rxWindowSize       0x20000442            0x2           2   
.bss.radioCallbackMask  0x20000444            0x1           1   
.bss.pmmState           0x20000445            0x1           1   
.bss.sysTaskFlag        0x20000446            0x2           2   
.bss.radioTaskFlags     0x20000448            0x2           2   
.bss.instRSSI           0x2000044a            0x2           2   
.bss.allocatedTimerId   0x2000044c            0x1           1   
.bss.compareCallbackEna 0x2000044d            0x1           1   
.bss.radioState         0x2000044e            0x1           1   
.bss.txBufferLen        0x2000044f            0x1           1   
         Total RAM used  :       0x450        1104  3.4% of 0x8000
        --------------------------------------------------------------------------
            Total Data Memory used  :       0x450        1104  3.4% of 0x8000
        --------------------------------------------------------------------------


Dynamic Data-Memory Reservation
section                    address  length [bytes]      (dec)  Description
-------                 ----------  -------------------------  -----------
heap                    0x20000458          0x200         512  Reserved for heap 
stack                   0x20000670         0x7988       31112  Reserved for stack 

        --------------------------------------------------------------------------

Discarded input sections

 .text          0x00000000        0x0 c:/program files/microchip/xc32/v3.01/bin/bin/../../lib/gcc/pic32c/8.3.1/thumb/v6-m/nofp/crti.o
 .data          0x00000000        0x0 c:/program files/microchip/xc32/v3.01/bin/bin/../../lib/gcc/pic32c/8.3.1/thumb/v6-m/nofp/crti.o
 .bss           0x00000000        0x0 c:/program files/microchip/xc32/v3.01/bin/bin/../../lib/gcc/pic32c/8.3.1/thumb/v6-m/nofp/crti.o
 .xc_stack_usage.hdr
                0x00000000        0xe c:/program files/microchip/xc32/v3.01/bin/bin/../../lib/gcc/pic32c/8.3.1/thumb/v6-m/nofp/crti.o
 .xc_stack_usage
                0x00000000       0x26 c:/program files/microchip/xc32/v3.01/bin/bin/../../lib/gcc/pic32c/8.3.1/thumb/v6-m/nofp/crti.o
 .data          0x00000000        0x4 c:/program files/microchip/xc32/v3.01/bin/bin/../../lib/gcc/pic32c/8.3.1/thumb/v6-m/nofp/crtbegin.o
 .xc_stack_usage
                0x00000000       0x3c c:/program files/microchip/xc32/v3.01/bin/bin/../../lib/gcc/pic32c/8.3.1/thumb/v6-m/nofp/crtbegin.o
 .xc_stack_usage.hdr
                0x00000000        0xe c:/program files/microchip/xc32/v3.01/bin/bin/../../lib/gcc/pic32c/8.3.1/thumb/v6-m/nofp/crtbegin.o
 .text          0x00000000        0x0 build/default/production/_ext/1824788055/radio_driver_hal.o
 .data          0x00000000        0x0 build/default/production/_ext/1824788055/radio_driver_hal.o
 .bss           0x00000000        0x0 build/default/production/_ext/1824788055/radio_driver_hal.o
 .text.HAL_EnableDIO0Interrupt
                0x00000000        0xa build/default/production/_ext/1824788055/radio_driver_hal.o
 .text.HAL_DIO0PinValue
                0x00000000       0x10 build/default/production/_ext/1824788055/radio_driver_hal.o
 .text.HAL_EnableDIO1Interrupt
                0x00000000        0xa build/default/production/_ext/1824788055/radio_driver_hal.o
 .text.HAL_DisbleDIO1Interrupt
                0x00000000        0xa build/default/production/_ext/1824788055/radio_driver_hal.o
 .text.HAL_DIO1PinValue
                0x00000000       0x10 build/default/production/_ext/1824788055/radio_driver_hal.o
 .text.HAL_EnableDIO2Interrupt
                0x00000000        0xa build/default/production/_ext/1824788055/radio_driver_hal.o
 .text.HAL_DisbleDIO2Interrupt
                0x00000000        0xa build/default/production/_ext/1824788055/radio_driver_hal.o
 .text.HAL_DIO2PinValue
                0x00000000       0x10 build/default/production/_ext/1824788055/radio_driver_hal.o
 .text.INTERRUPT_GetDioStatus
                0x00000000       0x1c build/default/production/_ext/1824788055/radio_driver_hal.o
 .text.INTERRUPT_PeekDioStatus
                0x00000000        0xc build/default/production/_ext/1824788055/radio_driver_hal.o
 .bss.dioStatus
                0x00000000        0x1 build/default/production/_ext/1824788055/radio_driver_hal.o
 .text          0x00000000        0x0 build/default/production/_ext/1824788055/sleep.o
 .data          0x00000000        0x0 build/default/production/_ext/1824788055/sleep.o
 .bss           0x00000000        0x0 build/default/production/_ext/1824788055/sleep.o
 .text          0x00000000        0x0 build/default/production/_ext/1824788055/sleep_timer.o
 .data          0x00000000        0x0 build/default/production/_ext/1824788055/sleep_timer.o
 .bss           0x00000000        0x0 build/default/production/_ext/1824788055/sleep_timer.o
 .text          0x00000000        0x0 build/default/production/_ext/1824788055/sys.o
 .data          0x00000000        0x0 build/default/production/_ext/1824788055/sys.o
 .bss           0x00000000        0x0 build/default/production/_ext/1824788055/sys.o
 .text          0x00000000        0x0 build/default/production/_ext/1824796116/pmm.o
 .data          0x00000000        0x0 build/default/production/_ext/1824796116/pmm.o
 .bss           0x00000000        0x0 build/default/production/_ext/1824796116/pmm.o
 .text          0x00000000        0x0 build/default/production/_ext/2120447010/lorawan_mband_eu.o
 .data          0x00000000        0x0 build/default/production/_ext/2120447010/lorawan_mband_eu.o
 .bss           0x00000000        0x0 build/default/production/_ext/2120447010/lorawan_mband_eu.o
 .text.InitDefault868Channels
                0x00000000      0x144 build/default/production/_ext/2120447010/lorawan_mband_eu.o
 .text.InitDefault433Channels
                0x00000000       0xfc build/default/production/_ext/2120447010/lorawan_mband_eu.o
 .text.LORAReg_InitEU
                0x00000000      0x1b4 build/default/production/_ext/2120447010/lorawan_mband_eu.o
 .rodata.AdvChannels433
                0x00000000       0x24 build/default/production/_ext/2120447010/lorawan_mband_eu.o
 .rodata.AdvChannels868
                0x00000000       0x24 build/default/production/_ext/2120447010/lorawan_mband_eu.o
 .rodata.DefaultChannels433
                0x00000000        0x8 build/default/production/_ext/2120447010/lorawan_mband_eu.o
 .rodata.DefaultChannels868
                0x00000000        0x8 build/default/production/_ext/2120447010/lorawan_mband_eu.o
 .rodata.DefaultDrparamsEU
                0x00000000       0x40 build/default/production/_ext/2120447010/lorawan_mband_eu.o
 .rodata.SubBandDutyCycle868
                0x00000000        0xc build/default/production/_ext/2120447010/lorawan_mband_eu.o
 .rodata.SubBandParams433
                0x00000000        0xc build/default/production/_ext/2120447010/lorawan_mband_eu.o
 .rodata.SubBandParams868
                0x00000000       0x48 build/default/production/_ext/2120447010/lorawan_mband_eu.o
 .debug_info    0x00000000     0x325b build/default/production/_ext/2120447010/lorawan_mband_eu.o
 .debug_abbrev  0x00000000      0x333 build/default/production/_ext/2120447010/lorawan_mband_eu.o
 .debug_loc     0x00000000      0x10e build/default/production/_ext/2120447010/lorawan_mband_eu.o
 .debug_aranges
                0x00000000       0x30 build/default/production/_ext/2120447010/lorawan_mband_eu.o
 .debug_ranges  0x00000000       0x20 build/default/production/_ext/2120447010/lorawan_mband_eu.o
 .debug_line    0x00000000      0x4dc build/default/production/_ext/2120447010/lorawan_mband_eu.o
 .debug_str     0x00000000       0x9f build/default/production/_ext/2120447010/lorawan_mband_eu.o
 .comment       0x00000000       0x54 build/default/production/_ext/2120447010/lorawan_mband_eu.o
 .debug_frame   0x00000000       0x74 build/default/production/_ext/2120447010/lorawan_mband_eu.o
 .ARM.attributes
                0x00000000       0x2c build/default/production/_ext/2120447010/lorawan_mband_eu.o
 .text          0x00000000        0x0 build/default/production/_ext/282161921/sw_timer.o
 .data          0x00000000        0x0 build/default/production/_ext/282161921/sw_timer.o
 .bss           0x00000000        0x0 build/default/production/_ext/282161921/sw_timer.o
 .text.SystemTimerInit
                0x00000000       0x24 build/default/production/_ext/282161921/sw_timer.o
 .text.SwTimerIsRunning
                0x00000000       0x1c build/default/production/_ext/282161921/sw_timer.o
 .text.SwTimerReadValue
                0x00000000       0x24 build/default/production/_ext/282161921/sw_timer.o
 .text.SwTimerTimestampCreate
                0x00000000       0x2c build/default/production/_ext/282161921/sw_timer.o
 .text.SwTimerReadTimestamp
                0x00000000       0x14 build/default/production/_ext/282161921/sw_timer.o
 .text.SwTimerWriteTimestamp
                0x00000000       0x14 build/default/production/_ext/282161921/sw_timer.o
 .text.SwTimerTimeDiff
                0x00000000       0x2c build/default/production/_ext/282161921/sw_timer.o
 .bss.allocatedTimestampId
                0x00000000        0x1 build/default/production/_ext/282161921/sw_timer.o
 .bss.swTimestamp
                0x00000000       0x10 build/default/production/_ext/282161921/sw_timer.o
 .text          0x00000000        0x0 build/default/production/_ext/1824799377/system_assert.o
 .data          0x00000000        0x0 build/default/production/_ext/1824799377/system_assert.o
 .bss           0x00000000        0x0 build/default/production/_ext/1824799377/system_assert.o
 .debug_info    0x00000000      0x2c8 build/default/production/_ext/1824799377/system_assert.o
 .debug_abbrev  0x00000000       0x1b build/default/production/_ext/1824799377/system_assert.o
 .debug_aranges
                0x00000000       0x18 build/default/production/_ext/1824799377/system_assert.o
 .debug_line    0x00000000       0x1d build/default/production/_ext/1824799377/system_assert.o
 .debug_str     0x00000000        0x0 build/default/production/_ext/1824799377/system_assert.o
 .comment       0x00000000       0x54 build/default/production/_ext/1824799377/system_assert.o
 .ARM.attributes
                0x00000000       0x32 build/default/production/_ext/1824799377/system_assert.o
 .text          0x00000000        0x0 build/default/production/_ext/1824799377/system_init.o
 .data          0x00000000        0x0 build/default/production/_ext/1824799377/system_init.o
 .bss           0x00000000        0x0 build/default/production/_ext/1824799377/system_init.o
 .text.Stack_Init
                0x00000000        0xa build/default/production/_ext/1824799377/system_init.o
 .debug_info    0x00000000      0x36f build/default/production/_ext/1824799377/system_init.o
 .debug_abbrev  0x00000000       0x86 build/default/production/_ext/1824799377/system_init.o
 .debug_loc     0x00000000       0x20 build/default/production/_ext/1824799377/system_init.o
 .debug_aranges
                0x00000000       0x20 build/default/production/_ext/1824799377/system_init.o
 .debug_ranges  0x00000000       0x10 build/default/production/_ext/1824799377/system_init.o
 .debug_line    0x00000000       0x7e build/default/production/_ext/1824799377/system_init.o
 .debug_str     0x00000000       0x10 build/default/production/_ext/1824799377/system_init.o
 .comment       0x00000000       0x54 build/default/production/_ext/1824799377/system_init.o
 .debug_frame   0x00000000       0x28 build/default/production/_ext/1824799377/system_init.o
 .ARM.attributes
                0x00000000       0x2c build/default/production/_ext/1824799377/system_init.o
 .text          0x00000000        0x0 build/default/production/_ext/1824799377/system_task_manager.o
 .data          0x00000000        0x0 build/default/production/_ext/1824799377/system_task_manager.o
 .bss           0x00000000        0x0 build/default/production/_ext/1824799377/system_task_manager.o
 .text          0x00000000        0x0 build/default/production/_ext/22805713/radio_driver_sx1276.o
 .data          0x00000000        0x0 build/default/production/_ext/22805713/radio_driver_sx1276.o
 .bss           0x00000000        0x0 build/default/production/_ext/22805713/radio_driver_sx1276.o
 .text.RADIO_ReadRandom
                0x00000000       0x72 build/default/production/_ext/22805713/radio_driver_sx1276.o
 .text.Radio_ReadLoraRssi
                0x00000000       0x30 build/default/production/_ext/22805713/radio_driver_sx1276.o
 .text          0x00000000        0x0 build/default/production/_ext/1824799587/radio_get_set.o
 .data          0x00000000        0x0 build/default/production/_ext/1824799587/radio_get_set.o
 .bss           0x00000000        0x0 build/default/production/_ext/1824799587/radio_get_set.o
 .text.RADIO_GetAttr
                0x00000000      0x13c build/default/production/_ext/1824799587/radio_get_set.o
 .rodata.RADIO_GetAttr
                0x00000000       0x80 build/default/production/_ext/1824799587/radio_get_set.o
 .text.RADIO_SetAttr
                0x00000000      0x234 build/default/production/_ext/1824799587/radio_get_set.o
 .rodata.RADIO_SetAttr
                0x00000000       0x78 build/default/production/_ext/1824799587/radio_get_set.o
 .text          0x00000000        0x0 build/default/production/_ext/1824799587/radio_interface.o
 .data          0x00000000        0x0 build/default/production/_ext/1824799587/radio_interface.o
 .bss           0x00000000        0x0 build/default/production/_ext/1824799587/radio_interface.o
 .text          0x00000000        0x0 build/default/production/_ext/1824799587/radio_lbt.o
 .data          0x00000000        0x0 build/default/production/_ext/1824799587/radio_lbt.o
 .bss           0x00000000        0x0 build/default/production/_ext/1824799587/radio_lbt.o
 .text.radioScanDoneHandler
                0x00000000       0x74 build/default/production/_ext/1824799587/radio_lbt.o
 .text          0x00000000        0x0 build/default/production/_ext/1824799587/radio_task_manager.o
 .data          0x00000000        0x0 build/default/production/_ext/1824799587/radio_task_manager.o
 .bss           0x00000000        0x0 build/default/production/_ext/1824799587/radio_task_manager.o
 .text.radioClearTask
                0x00000000       0x1c build/default/production/_ext/1824799587/radio_task_manager.o
 .text          0x00000000        0x0 build/default/production/_ext/1824799587/radio_transaction.o
 .data          0x00000000        0x0 build/default/production/_ext/1824799587/radio_transaction.o
 .bss           0x00000000        0x0 build/default/production/_ext/1824799587/radio_transaction.o
 .text.RadioSetState
                0x00000000        0xc build/default/production/_ext/1824799587/radio_transaction.o
 .text.RADIO_ClearCallbackBitmask
                0x00000000       0x10 build/default/production/_ext/1824799587/radio_transaction.o
 .text.RADIO_GetCallbackBitmask
                0x00000000        0xc build/default/production/_ext/1824799587/radio_transaction.o
 .text.RADIO_Transmit
                0x00000000       0x4c build/default/production/_ext/1824799587/radio_transaction.o
 .text.Radio_FSKTxPayloadHandler
                0x00000000       0xa4 build/default/production/_ext/1824799587/radio_transaction.o
 .text.RADIO_GetData
                0x00000000       0x14 build/default/production/_ext/1824799587/radio_transaction.o
 .text.RADIO_TransmitCW
                0x00000000       0x54 build/default/production/_ext/1824799587/radio_transaction.o
 .text.RADIO_StopCW
                0x00000000       0x48 build/default/production/_ext/1824799587/radio_transaction.o
 .text.RADIO_Receive
                0x00000000       0xb8 build/default/production/_ext/1824799587/radio_transaction.o
 .text          0x00000000        0x0 build/default/production/_ext/1530445869/radioconfig.o
 .data          0x00000000        0x0 build/default/production/_ext/1530445869/radioconfig.o
 .bss           0x00000000        0x0 build/default/production/_ext/1530445869/radioconfig.o
 .text.ConfigureRadio
                0x00000000       0x4c build/default/production/_ext/1530445869/radioconfig.o
 .text.ConfigureRadioTx
                0x00000000       0x2a build/default/production/_ext/1530445869/radioconfig.o
 .text.ExampleInterfaceFunction
                0x00000000        0x4 build/default/production/_ext/1530445869/radioconfig.o
 .bss.global_data
                0x00000000        0x4 build/default/production/_ext/1530445869/radioconfig.o
 .debug_info    0x00000000     0x2fc8 build/default/production/_ext/1530445869/radioconfig.o
 .debug_abbrev  0x00000000      0x2ff build/default/production/_ext/1530445869/radioconfig.o
 .debug_loc     0x00000000       0x7d build/default/production/_ext/1530445869/radioconfig.o
 .debug_aranges
                0x00000000       0x30 build/default/production/_ext/1530445869/radioconfig.o
 .debug_ranges  0x00000000       0x20 build/default/production/_ext/1530445869/radioconfig.o
 .debug_line    0x00000000      0x302 build/default/production/_ext/1530445869/radioconfig.o
 .debug_str     0x00000000       0x6a build/default/production/_ext/1530445869/radioconfig.o
 .comment       0x00000000       0x54 build/default/production/_ext/1530445869/radioconfig.o
 .debug_frame   0x00000000       0x58 build/default/production/_ext/1530445869/radioconfig.o
 .ARM.attributes
                0x00000000       0x2c build/default/production/_ext/1530445869/radioconfig.o
 .text          0x00000000        0x0 build/default/production/_ext/60163342/plib_adc.o
 .data          0x00000000        0x0 build/default/production/_ext/60163342/plib_adc.o
 .bss           0x00000000        0x0 build/default/production/_ext/60163342/plib_adc.o
 .text.ADC_ChannelSelect
                0x00000000       0x18 build/default/production/_ext/60163342/plib_adc.o
 .text.ADC_ComparisonWindowSet
                0x00000000       0x18 build/default/production/_ext/60163342/plib_adc.o
 .text.ADC_WindowModeSet
                0x00000000       0x20 build/default/production/_ext/60163342/plib_adc.o
 .text.ADC_InterruptsEnable
                0x00000000        0xc build/default/production/_ext/60163342/plib_adc.o
 .text.ADC_InterruptsDisable
                0x00000000        0xc build/default/production/_ext/60163342/plib_adc.o
 .text.ADC_ConversionStatusGet
                0x00000000       0x18 build/default/production/_ext/60163342/plib_adc.o
 .text          0x00000000        0x0 build/default/production/_ext/1984496892/plib_clock.o
 .data          0x00000000        0x0 build/default/production/_ext/1984496892/plib_clock.o
 .bss           0x00000000        0x0 build/default/production/_ext/1984496892/plib_clock.o
 .text          0x00000000        0x0 build/default/production/_ext/60167341/plib_eic.o
 .data          0x00000000        0x0 build/default/production/_ext/60167341/plib_eic.o
 .bss           0x00000000        0x0 build/default/production/_ext/60167341/plib_eic.o
 .text          0x00000000        0x0 build/default/production/_ext/1986646378/plib_evsys.o
 .data          0x00000000        0x0 build/default/production/_ext/1986646378/plib_evsys.o
 .bss           0x00000000        0x0 build/default/production/_ext/1986646378/plib_evsys.o
 .text          0x00000000        0x0 build/default/production/_ext/1865468468/plib_nvic.o
 .data          0x00000000        0x0 build/default/production/_ext/1865468468/plib_nvic.o
 .bss           0x00000000        0x0 build/default/production/_ext/1865468468/plib_nvic.o
 .text          0x00000000        0x0 build/default/production/_ext/1593096446/plib_nvmctrl.o
 .data          0x00000000        0x0 build/default/production/_ext/1593096446/plib_nvmctrl.o
 .bss           0x00000000        0x0 build/default/production/_ext/1593096446/plib_nvmctrl.o
 .text.NVMCTRL_CacheInvalidate
                0x00000000       0x10 build/default/production/_ext/1593096446/plib_nvmctrl.o
 .text.NVMCTRL_RWWEEPROM_Read
                0x00000000       0x10 build/default/production/_ext/1593096446/plib_nvmctrl.o
 .text.NVMCTRL_RWWEEPROM_PageWrite
                0x00000000       0x14 build/default/production/_ext/1593096446/plib_nvmctrl.o
 .text.NVMCTRL_RWWEEPROM_RowErase
                0x00000000       0x18 build/default/production/_ext/1593096446/plib_nvmctrl.o
 .text.NVMCTRL_Read
                0x00000000       0x10 build/default/production/_ext/1593096446/plib_nvmctrl.o
 .text.NVMCTRL_PageWrite
                0x00000000       0x14 build/default/production/_ext/1593096446/plib_nvmctrl.o
 .text.NVMCTRL_RowErase
                0x00000000       0x18 build/default/production/_ext/1593096446/plib_nvmctrl.o
 .text.NVMCTRL_ErrorGet
                0x00000000       0x2c build/default/production/_ext/1593096446/plib_nvmctrl.o
 .text.NVMCTRL_IsBusy
                0x00000000       0x14 build/default/production/_ext/1593096446/plib_nvmctrl.o
 .text.NVMCTRL_RegionLock
                0x00000000       0x14 build/default/production/_ext/1593096446/plib_nvmctrl.o
 .text.NVMCTRL_RegionUnlock
                0x00000000       0x14 build/default/production/_ext/1593096446/plib_nvmctrl.o
 .text          0x00000000        0x0 build/default/production/_ext/829342769/plib_pm.o
 .data          0x00000000        0x0 build/default/production/_ext/829342769/plib_pm.o
 .bss           0x00000000        0x0 build/default/production/_ext/829342769/plib_pm.o
 .text.PM_IdleModeEnter
                0x00000000       0x14 build/default/production/_ext/829342769/plib_pm.o
 .text.PM_OffModeEnter
                0x00000000       0x14 build/default/production/_ext/829342769/plib_pm.o
 .text.PM_IO_RetentionSet
                0x00000000        0xe build/default/production/_ext/829342769/plib_pm.o
 .text.PM_IO_RetentionClear
                0x00000000        0xe build/default/production/_ext/829342769/plib_pm.o
 .text.PM_ConfigurePerformanceLevel
                0x00000000       0x3e build/default/production/_ext/829342769/plib_pm.o
 .text          0x00000000        0x0 build/default/production/_ext/1865521619/plib_port.o
 .data          0x00000000        0x0 build/default/production/_ext/1865521619/plib_port.o
 .bss           0x00000000        0x0 build/default/production/_ext/1865521619/plib_port.o
 .text.PORT_GroupRead
                0x00000000        0x4 build/default/production/_ext/1865521619/plib_port.o
 .text.PORT_GroupLatchRead
                0x00000000        0x4 build/default/production/_ext/1865521619/plib_port.o
 .text.PORT_GroupSet
                0x00000000        0x4 build/default/production/_ext/1865521619/plib_port.o
 .text.PORT_GroupClear
                0x00000000        0x4 build/default/production/_ext/1865521619/plib_port.o
 .text.PORT_GroupToggle
                0x00000000        0x4 build/default/production/_ext/1865521619/plib_port.o
 .text.PORT_GroupInputEnable
                0x00000000        0x4 build/default/production/_ext/1865521619/plib_port.o
 .text.PORT_GroupOutputEnable
                0x00000000        0x4 build/default/production/_ext/1865521619/plib_port.o
 .text.PORT_PinPeripheralFunctionConfig
                0x00000000       0x48 build/default/production/_ext/1865521619/plib_port.o
 .text.PORT_PinGPIOConfig
                0x00000000       0x20 build/default/production/_ext/1865521619/plib_port.o
 .text          0x00000000        0x0 build/default/production/_ext/1865585090/plib_rstc.o
 .data          0x00000000        0x0 build/default/production/_ext/1865585090/plib_rstc.o
 .bss           0x00000000        0x0 build/default/production/_ext/1865585090/plib_rstc.o
 .text.RSTC_WakeupCauseGet
                0x00000000        0xc build/default/production/_ext/1865585090/plib_rstc.o
 .text.RSTC_ResetCauseGet
                0x00000000        0xc build/default/production/_ext/1865585090/plib_rstc.o
 .text.RSTC_BackupExitCauseGet
                0x00000000        0xc build/default/production/_ext/1865585090/plib_rstc.o
 .text          0x00000000        0x0 build/default/production/_ext/60180175/plib_rtc_timer.o
 .data          0x00000000        0x0 build/default/production/_ext/60180175/plib_rtc_timer.o
 .bss           0x00000000        0x0 build/default/production/_ext/60180175/plib_rtc_timer.o
 .text.RTC_Timer32Stop
                0x00000000       0x1c build/default/production/_ext/60180175/plib_rtc_timer.o
 .text.RTC_Timer32PeriodGet
                0x00000000        0x6 build/default/production/_ext/60180175/plib_rtc_timer.o
 .text.RTC_Timer32FrequencyGet
                0x00000000        0x4 build/default/production/_ext/60180175/plib_rtc_timer.o
 .text          0x00000000        0x0 build/default/production/_ext/508257091/plib_sercom1_i2c_master.o
 .data          0x00000000        0x0 build/default/production/_ext/508257091/plib_sercom1_i2c_master.o
 .bss           0x00000000        0x0 build/default/production/_ext/508257091/plib_sercom1_i2c_master.o
 .text.SERCOM1_I2C_InitiateTransfer
                0x00000000       0x54 build/default/production/_ext/508257091/plib_sercom1_i2c_master.o
 .text.SERCOM1_I2C_Initialize
                0x00000000       0x60 build/default/production/_ext/508257091/plib_sercom1_i2c_master.o
 .text.SERCOM1_I2C_TransferSetup
                0x00000000      0x108 build/default/production/_ext/508257091/plib_sercom1_i2c_master.o
 .text.SERCOM1_I2C_CallbackRegister
                0x00000000        0xc build/default/production/_ext/508257091/plib_sercom1_i2c_master.o
 .text.SERCOM1_I2C_Read
                0x00000000       0x38 build/default/production/_ext/508257091/plib_sercom1_i2c_master.o
 .text.SERCOM1_I2C_Write
                0x00000000       0x34 build/default/production/_ext/508257091/plib_sercom1_i2c_master.o
 .text.SERCOM1_I2C_WriteRead
                0x00000000       0x38 build/default/production/_ext/508257091/plib_sercom1_i2c_master.o
 .text.SERCOM1_I2C_IsBusy
                0x00000000       0x28 build/default/production/_ext/508257091/plib_sercom1_i2c_master.o
 .text.SERCOM1_I2C_ErrorGet
                0x00000000       0x10 build/default/production/_ext/508257091/plib_sercom1_i2c_master.o
 .text.SERCOM1_I2C_InterruptHandler
                0x00000000      0x1ac build/default/production/_ext/508257091/plib_sercom1_i2c_master.o
 .bss.sercom1I2CObj
                0x00000000       0x2c build/default/production/_ext/508257091/plib_sercom1_i2c_master.o
 .debug_info    0x00000000     0x181c build/default/production/_ext/508257091/plib_sercom1_i2c_master.o
 .debug_abbrev  0x00000000      0x3bd build/default/production/_ext/508257091/plib_sercom1_i2c_master.o
 .debug_loc     0x00000000      0xae6 build/default/production/_ext/508257091/plib_sercom1_i2c_master.o
 .debug_aranges
                0x00000000       0x68 build/default/production/_ext/508257091/plib_sercom1_i2c_master.o
 .debug_ranges  0x00000000       0xd8 build/default/production/_ext/508257091/plib_sercom1_i2c_master.o
 .debug_line    0x00000000      0x819 build/default/production/_ext/508257091/plib_sercom1_i2c_master.o
 .debug_str     0x00000000      0x14a build/default/production/_ext/508257091/plib_sercom1_i2c_master.o
 .comment       0x00000000       0x54 build/default/production/_ext/508257091/plib_sercom1_i2c_master.o
 .debug_frame   0x00000000       0xe8 build/default/production/_ext/508257091/plib_sercom1_i2c_master.o
 .ARM.attributes
                0x00000000       0x2c build/default/production/_ext/508257091/plib_sercom1_i2c_master.o
 .text          0x00000000        0x0 build/default/production/_ext/17022449/plib_sercom4_spi_master.o
 .data          0x00000000        0x0 build/default/production/_ext/17022449/plib_sercom4_spi_master.o
 .bss           0x00000000        0x0 build/default/production/_ext/17022449/plib_sercom4_spi_master.o
 .text.SERCOM4_SPI_TransferSetup
                0x00000000       0x88 build/default/production/_ext/17022449/plib_sercom4_spi_master.o
 .text.SERCOM4_SPI_IsTransmitterBusy
                0x00000000       0x14 build/default/production/_ext/17022449/plib_sercom4_spi_master.o
 .text.SERCOM4_SPI_Write
                0x00000000        0xc build/default/production/_ext/17022449/plib_sercom4_spi_master.o
 .text.SERCOM4_SPI_Read
                0x00000000       0x10 build/default/production/_ext/17022449/plib_sercom4_spi_master.o
 .text          0x00000000        0x0 build/default/production/_ext/504274921/plib_sercom0_usart.o
 .data          0x00000000        0x0 build/default/production/_ext/504274921/plib_sercom0_usart.o
 .bss           0x00000000        0x0 build/default/production/_ext/504274921/plib_sercom0_usart.o
 .text.SERCOM0_USART_ErrorClear
                0x00000000       0x2c build/default/production/_ext/504274921/plib_sercom0_usart.o
 .text.SERCOM0_USART_Initialize
                0x00000000       0x58 build/default/production/_ext/504274921/plib_sercom0_usart.o
 .text.SERCOM0_USART_FrequencyGet
                0x00000000        0x6 build/default/production/_ext/504274921/plib_sercom0_usart.o
 .text.SERCOM0_USART_SerialSetup
                0x00000000      0x13c build/default/production/_ext/504274921/plib_sercom0_usart.o
 .text.SERCOM0_USART_ErrorGet
                0x00000000       0x10 build/default/production/_ext/504274921/plib_sercom0_usart.o
 .text.SERCOM0_USART_TransmitterEnable
                0x00000000       0x16 build/default/production/_ext/504274921/plib_sercom0_usart.o
 .text.SERCOM0_USART_TransmitterDisable
                0x00000000       0x18 build/default/production/_ext/504274921/plib_sercom0_usart.o
 .text.SERCOM0_USART_Write
                0x00000000       0x60 build/default/production/_ext/504274921/plib_sercom0_usart.o
 .text.SERCOM0_USART_WriteIsBusy
                0x00000000        0xc build/default/production/_ext/504274921/plib_sercom0_usart.o
 .text.SERCOM0_USART_WriteCountGet
                0x00000000        0xc build/default/production/_ext/504274921/plib_sercom0_usart.o
 .text.SERCOM0_USART_WriteCallbackRegister
                0x00000000        0xc build/default/production/_ext/504274921/plib_sercom0_usart.o
 .text.SERCOM0_USART_ReceiverEnable
                0x00000000       0x16 build/default/production/_ext/504274921/plib_sercom0_usart.o
 .text.SERCOM0_USART_ReceiverDisable
                0x00000000       0x18 build/default/production/_ext/504274921/plib_sercom0_usart.o
 .text.SERCOM0_USART_Read
                0x00000000       0x40 build/default/production/_ext/504274921/plib_sercom0_usart.o
 .text.SERCOM0_USART_ReadIsBusy
                0x00000000       0x10 build/default/production/_ext/504274921/plib_sercom0_usart.o
 .text.SERCOM0_USART_ReadCountGet
                0x00000000        0xc build/default/production/_ext/504274921/plib_sercom0_usart.o
 .text.SERCOM0_USART_ReadAbort
                0x00000000       0x28 build/default/production/_ext/504274921/plib_sercom0_usart.o
 .text.SERCOM0_USART_ReadCallbackRegister
                0x00000000        0xc build/default/production/_ext/504274921/plib_sercom0_usart.o
 .text.SERCOM0_USART_InterruptHandler
                0x00000000      0x190 build/default/production/_ext/504274921/plib_sercom0_usart.o
 .bss.sercom0USARTObj
                0x00000000       0x30 build/default/production/_ext/504274921/plib_sercom0_usart.o
 .debug_info    0x00000000     0x185d build/default/production/_ext/504274921/plib_sercom0_usart.o
 .debug_abbrev  0x00000000      0x37f build/default/production/_ext/504274921/plib_sercom0_usart.o
 .debug_loc     0x00000000      0x6d7 build/default/production/_ext/504274921/plib_sercom0_usart.o
 .debug_aranges
                0x00000000       0xb0 build/default/production/_ext/504274921/plib_sercom0_usart.o
 .debug_ranges  0x00000000       0xd0 build/default/production/_ext/504274921/plib_sercom0_usart.o
 .debug_line    0x00000000      0x932 build/default/production/_ext/504274921/plib_sercom0_usart.o
 .debug_str     0x00000000      0x101 build/default/production/_ext/504274921/plib_sercom0_usart.o
 .comment       0x00000000       0x54 build/default/production/_ext/504274921/plib_sercom0_usart.o
 .debug_frame   0x00000000      0x180 build/default/production/_ext/504274921/plib_sercom0_usart.o
 .ARM.attributes
                0x00000000       0x2c build/default/production/_ext/504274921/plib_sercom0_usart.o
 .text          0x00000000        0x0 build/default/production/_ext/1865616679/plib_supc.o
 .data          0x00000000        0x0 build/default/production/_ext/1865616679/plib_supc.o
 .bss           0x00000000        0x0 build/default/production/_ext/1865616679/plib_supc.o
 .text.SUPC_SetOutputPin
                0x00000000       0x1c build/default/production/_ext/1865616679/plib_supc.o
 .text.SUPC_ClearOutputPin
                0x00000000       0x1c build/default/production/_ext/1865616679/plib_supc.o
 .text.SUPC_SelectVoltageRegulator
                0x00000000       0x2c build/default/production/_ext/1865616679/plib_supc.o
 .text          0x00000000        0x0 build/default/production/_ext/1827571544/plib_systick.o
 .data          0x00000000        0x0 build/default/production/_ext/1827571544/plib_systick.o
 .bss           0x00000000        0x0 build/default/production/_ext/1827571544/plib_systick.o
 .text.SYSTICK_TimerRestart
                0x00000000       0x1c build/default/production/_ext/1827571544/plib_systick.o
 .text.SYSTICK_TimerStop
                0x00000000       0x10 build/default/production/_ext/1827571544/plib_systick.o
 .text.SYSTICK_TimerPeriodGet
                0x00000000        0xc build/default/production/_ext/1827571544/plib_systick.o
 .text.SYSTICK_TimerCounterGet
                0x00000000        0xc build/default/production/_ext/1827571544/plib_systick.o
 .text.SYSTICK_DelayMs
                0x00000000       0x40 build/default/production/_ext/1827571544/plib_systick.o
 .text.SYSTICK_DelayUs
                0x00000000       0x40 build/default/production/_ext/1827571544/plib_systick.o
 .text          0x00000000        0x0 build/default/production/_ext/829342655/plib_tc0.o
 .data          0x00000000        0x0 build/default/production/_ext/829342655/plib_tc0.o
 .bss           0x00000000        0x0 build/default/production/_ext/829342655/plib_tc0.o
 .text.TC0_CompareFrequencyGet
                0x00000000        0x6 build/default/production/_ext/829342655/plib_tc0.o
 .text.TC0_CompareCommandSet
                0x00000000       0x18 build/default/production/_ext/829342655/plib_tc0.o
 .text.TC0_Compare32bitPeriodGet
                0x00000000        0x6 build/default/production/_ext/829342655/plib_tc0.o
 .text.TC0_Compare32bitMatch1Set
                0x00000000       0x18 build/default/production/_ext/829342655/plib_tc0.o
 .text.TC0_CompareInterruptHandler
                0x00000000       0x30 build/default/production/_ext/829342655/plib_tc0.o
 .text          0x00000000        0x0 build/default/production/_ext/163028504/xc32_monitor.o
 .data          0x00000000        0x0 build/default/production/_ext/163028504/xc32_monitor.o
 .bss           0x00000000        0x0 build/default/production/_ext/163028504/xc32_monitor.o
 .text.read     0x00000000        0x6 build/default/production/_ext/163028504/xc32_monitor.o
 .text.write    0x00000000        0x6 build/default/production/_ext/163028504/xc32_monitor.o
 .debug_info    0x00000000      0x30e build/default/production/_ext/163028504/xc32_monitor.o
 .debug_abbrev  0x00000000       0x96 build/default/production/_ext/163028504/xc32_monitor.o
 .debug_loc     0x00000000       0x4a build/default/production/_ext/163028504/xc32_monitor.o
 .debug_aranges
                0x00000000       0x28 build/default/production/_ext/163028504/xc32_monitor.o
 .debug_ranges  0x00000000       0x18 build/default/production/_ext/163028504/xc32_monitor.o
 .debug_line    0x00000000       0xd0 build/default/production/_ext/163028504/xc32_monitor.o
 .debug_str     0x00000000        0x0 build/default/production/_ext/163028504/xc32_monitor.o
 .comment       0x00000000       0x54 build/default/production/_ext/163028504/xc32_monitor.o
 .debug_frame   0x00000000       0x30 build/default/production/_ext/163028504/xc32_monitor.o
 .ARM.attributes
                0x00000000       0x2c build/default/production/_ext/163028504/xc32_monitor.o
 .text          0x00000000        0x0 build/default/production/_ext/1881668453/sys_int.o
 .data          0x00000000        0x0 build/default/production/_ext/1881668453/sys_int.o
 .bss           0x00000000        0x0 build/default/production/_ext/1881668453/sys_int.o
 .text.SYS_INT_SourceDisable
                0x00000000       0x3c build/default/production/_ext/1881668453/sys_int.o
 .text.SYS_INT_SourceRestore
                0x00000000       0x1c build/default/production/_ext/1881668453/sys_int.o
 .text          0x00000000        0x0 build/default/production/_ext/1000052432/sys_reset.o
 .data          0x00000000        0x0 build/default/production/_ext/1000052432/sys_reset.o
 .bss           0x00000000        0x0 build/default/production/_ext/1000052432/sys_reset.o
 .text.SYS_RESET_SoftwareReset
                0x00000000       0x1c build/default/production/_ext/1000052432/sys_reset.o
 .debug_info    0x00000000      0x474 build/default/production/_ext/1000052432/sys_reset.o
 .debug_abbrev  0x00000000       0xef build/default/production/_ext/1000052432/sys_reset.o
 .debug_aranges
                0x00000000       0x20 build/default/production/_ext/1000052432/sys_reset.o
 .debug_ranges  0x00000000       0x10 build/default/production/_ext/1000052432/sys_reset.o
 .debug_line    0x00000000      0x179 build/default/production/_ext/1000052432/sys_reset.o
 .debug_str     0x00000000        0x0 build/default/production/_ext/1000052432/sys_reset.o
 .comment       0x00000000       0x54 build/default/production/_ext/1000052432/sys_reset.o
 .debug_frame   0x00000000       0x20 build/default/production/_ext/1000052432/sys_reset.o
 .ARM.attributes
                0x00000000       0x2c build/default/production/_ext/1000052432/sys_reset.o
 .text          0x00000000        0x0 build/default/production/_ext/1171490990/exceptions.o
 .data          0x00000000        0x0 build/default/production/_ext/1171490990/exceptions.o
 .bss           0x00000000        0x0 build/default/production/_ext/1171490990/exceptions.o
 .text          0x00000000        0x0 build/default/production/_ext/1171490990/interrupts.o
 .data          0x00000000        0x0 build/default/production/_ext/1171490990/interrupts.o
 .bss           0x00000000        0x0 build/default/production/_ext/1171490990/interrupts.o
 .text          0x00000000        0x0 build/default/production/_ext/1171490990/startup_xc32.o
 .data          0x00000000        0x0 build/default/production/_ext/1171490990/startup_xc32.o
 .bss           0x00000000        0x0 build/default/production/_ext/1171490990/startup_xc32.o
 .text          0x00000000        0x0 build/default/production/_ext/1171490990/initialization.o
 .data          0x00000000        0x0 build/default/production/_ext/1171490990/initialization.o
 .bss           0x00000000        0x0 build/default/production/_ext/1171490990/initialization.o
 .text          0x00000000        0x0 build/default/production/_ext/1171490990/libc_syscalls.o
 .data          0x00000000        0x0 build/default/production/_ext/1171490990/libc_syscalls.o
 .bss           0x00000000        0x0 build/default/production/_ext/1171490990/libc_syscalls.o
 .text._exit    0x00000000        0x2 build/default/production/_ext/1171490990/libc_syscalls.o
 .debug_info    0x00000000      0xee9 build/default/production/_ext/1171490990/libc_syscalls.o
 .debug_abbrev  0x00000000      0x1cc build/default/production/_ext/1171490990/libc_syscalls.o
 .debug_loc     0x00000000       0x15 build/default/production/_ext/1171490990/libc_syscalls.o
 .debug_aranges
                0x00000000       0x20 build/default/production/_ext/1171490990/libc_syscalls.o
 .debug_ranges  0x00000000       0x10 build/default/production/_ext/1171490990/libc_syscalls.o
 .debug_line    0x00000000      0x143 build/default/production/_ext/1171490990/libc_syscalls.o
 .debug_str     0x00000000        0xe build/default/production/_ext/1171490990/libc_syscalls.o
 .comment       0x00000000       0x54 build/default/production/_ext/1171490990/libc_syscalls.o
 .debug_frame   0x00000000       0x20 build/default/production/_ext/1171490990/libc_syscalls.o
 .ARM.attributes
                0x00000000       0x2c build/default/production/_ext/1171490990/libc_syscalls.o
 .text          0x00000000        0x0 build/default/production/_ext/1530445869/tasks.o
 .data          0x00000000        0x0 build/default/production/_ext/1530445869/tasks.o
 .bss           0x00000000        0x0 build/default/production/_ext/1530445869/tasks.o
 .text          0x00000000        0x0 build/default/production/_ext/1530445869/app.o
 .data          0x00000000        0x0 build/default/production/_ext/1530445869/app.o
 .bss           0x00000000        0x0 build/default/production/_ext/1530445869/app.o
 .text.buildLoraMessage
                0x00000000       0x1c build/default/production/_ext/1530445869/app.o
 .text.MlsAppSleepCallbackNotifySet
                0x00000000        0xc build/default/production/_ext/1530445869/app.o
 .bss.radio_transmission_active
                0x00000000        0x1 build/default/production/_ext/1530445869/app.o
 .data.macBuffer
                0x00000000        0x5 build/default/production/_ext/1530445869/app.o
 .text          0x00000000        0x0 build/default/production/_ext/1360937237/main.o
 .data          0x00000000        0x0 build/default/production/_ext/1360937237/main.o
 .bss           0x00000000        0x0 build/default/production/_ext/1360937237/main.o
 .text          0x00000000        0x0 c:/program files/microchip/xc32/v3.01/bin/bin/../../lib/gcc/pic32c/8.3.1/../../../../pic32c/lib/thumb/v6-m/nofp\libpic32c.a(data_init.o)
 .data          0x00000000        0x0 c:/program files/microchip/xc32/v3.01/bin/bin/../../lib/gcc/pic32c/8.3.1/../../../../pic32c/lib/thumb/v6-m/nofp\libpic32c.a(data_init.o)
 .xc_stack_usage
                0x00000000       0x2a c:/program files/microchip/xc32/v3.01/bin/bin/../../lib/gcc/pic32c/8.3.1/../../../../pic32c/lib/thumb/v6-m/nofp\libpic32c.a(data_init.o)
 .xc_stack_usage.hdr
                0x00000000        0xe c:/program files/microchip/xc32/v3.01/bin/bin/../../lib/gcc/pic32c/8.3.1/../../../../pic32c/lib/thumb/v6-m/nofp\libpic32c.a(data_init.o)
 .data          0x00000000        0x0 c:/program files/microchip/xc32/v3.01/bin/bin/../../lib/gcc/pic32c/8.3.1/thumb/v6-m/nofp\libgcc.a(_udivsi3.o)
 .bss           0x00000000        0x0 c:/program files/microchip/xc32/v3.01/bin/bin/../../lib/gcc/pic32c/8.3.1/thumb/v6-m/nofp\libgcc.a(_udivsi3.o)
 .xc_stack_usage.hdr
                0x00000000        0xe c:/program files/microchip/xc32/v3.01/bin/bin/../../lib/gcc/pic32c/8.3.1/thumb/v6-m/nofp\libgcc.a(_udivsi3.o)
 .xc_stack_usage
                0x00000000       0x35 c:/program files/microchip/xc32/v3.01/bin/bin/../../lib/gcc/pic32c/8.3.1/thumb/v6-m/nofp\libgcc.a(_udivsi3.o)
 .data          0x00000000        0x0 c:/program files/microchip/xc32/v3.01/bin/bin/../../lib/gcc/pic32c/8.3.1/thumb/v6-m/nofp\libgcc.a(_divsi3.o)
 .bss           0x00000000        0x0 c:/program files/microchip/xc32/v3.01/bin/bin/../../lib/gcc/pic32c/8.3.1/thumb/v6-m/nofp\libgcc.a(_divsi3.o)
 .xc_stack_usage.hdr
                0x00000000        0xe c:/program files/microchip/xc32/v3.01/bin/bin/../../lib/gcc/pic32c/8.3.1/thumb/v6-m/nofp\libgcc.a(_divsi3.o)
 .xc_stack_usage
                0x00000000       0x33 c:/program files/microchip/xc32/v3.01/bin/bin/../../lib/gcc/pic32c/8.3.1/thumb/v6-m/nofp\libgcc.a(_divsi3.o)
 .data          0x00000000        0x0 c:/program files/microchip/xc32/v3.01/bin/bin/../../lib/gcc/pic32c/8.3.1/thumb/v6-m/nofp\libgcc.a(_dvmd_tls.o)
 .bss           0x00000000        0x0 c:/program files/microchip/xc32/v3.01/bin/bin/../../lib/gcc/pic32c/8.3.1/thumb/v6-m/nofp\libgcc.a(_dvmd_tls.o)
 .xc_stack_usage.hdr
                0x00000000        0xe c:/program files/microchip/xc32/v3.01/bin/bin/../../lib/gcc/pic32c/8.3.1/thumb/v6-m/nofp\libgcc.a(_dvmd_tls.o)
 .xc_stack_usage
                0x00000000       0x36 c:/program files/microchip/xc32/v3.01/bin/bin/../../lib/gcc/pic32c/8.3.1/thumb/v6-m/nofp\libgcc.a(_dvmd_tls.o)
 .data          0x00000000        0x0 c:/program files/microchip/xc32/v3.01/bin/bin/../../lib/gcc/pic32c/8.3.1/thumb/v6-m/nofp\libgcc.a(_aeabi_uldivmod.o)
 .bss           0x00000000        0x0 c:/program files/microchip/xc32/v3.01/bin/bin/../../lib/gcc/pic32c/8.3.1/thumb/v6-m/nofp\libgcc.a(_aeabi_uldivmod.o)
 .xc_stack_usage.hdr
                0x00000000        0xe c:/program files/microchip/xc32/v3.01/bin/bin/../../lib/gcc/pic32c/8.3.1/thumb/v6-m/nofp\libgcc.a(_aeabi_uldivmod.o)
 .xc_stack_usage
                0x00000000       0x1e c:/program files/microchip/xc32/v3.01/bin/bin/../../lib/gcc/pic32c/8.3.1/thumb/v6-m/nofp\libgcc.a(_aeabi_uldivmod.o)
 .data          0x00000000        0x0 c:/program files/microchip/xc32/v3.01/bin/bin/../../lib/gcc/pic32c/8.3.1/thumb/v6-m/nofp\libgcc.a(_fixunssfsi.o)
 .bss           0x00000000        0x0 c:/program files/microchip/xc32/v3.01/bin/bin/../../lib/gcc/pic32c/8.3.1/thumb/v6-m/nofp\libgcc.a(_fixunssfsi.o)
 .xc_stack_usage
                0x00000000       0x1a c:/program files/microchip/xc32/v3.01/bin/bin/../../lib/gcc/pic32c/8.3.1/thumb/v6-m/nofp\libgcc.a(_fixunssfsi.o)
 .xc_stack_usage.hdr
                0x00000000        0xe c:/program files/microchip/xc32/v3.01/bin/bin/../../lib/gcc/pic32c/8.3.1/thumb/v6-m/nofp\libgcc.a(_fixunssfsi.o)
 .data          0x00000000        0x0 c:/program files/microchip/xc32/v3.01/bin/bin/../../lib/gcc/pic32c/8.3.1/thumb/v6-m/nofp\libgcc.a(_fixunssfdi.o)
 .bss           0x00000000        0x0 c:/program files/microchip/xc32/v3.01/bin/bin/../../lib/gcc/pic32c/8.3.1/thumb/v6-m/nofp\libgcc.a(_fixunssfdi.o)
 .xc_stack_usage
                0x00000000       0x1a c:/program files/microchip/xc32/v3.01/bin/bin/../../lib/gcc/pic32c/8.3.1/thumb/v6-m/nofp\libgcc.a(_fixunssfdi.o)
 .xc_stack_usage.hdr
                0x00000000        0xe c:/program files/microchip/xc32/v3.01/bin/bin/../../lib/gcc/pic32c/8.3.1/thumb/v6-m/nofp\libgcc.a(_fixunssfdi.o)
 .data          0x00000000        0x0 c:/program files/microchip/xc32/v3.01/bin/bin/../../lib/gcc/pic32c/8.3.1/thumb/v6-m/nofp\libgcc.a(_udivmoddi4.o)
 .bss           0x00000000        0x0 c:/program files/microchip/xc32/v3.01/bin/bin/../../lib/gcc/pic32c/8.3.1/thumb/v6-m/nofp\libgcc.a(_udivmoddi4.o)
 .xc_stack_usage
                0x00000000       0x1a c:/program files/microchip/xc32/v3.01/bin/bin/../../lib/gcc/pic32c/8.3.1/thumb/v6-m/nofp\libgcc.a(_udivmoddi4.o)
 .ARM.extab     0x00000000        0x0 c:/program files/microchip/xc32/v3.01/bin/bin/../../lib/gcc/pic32c/8.3.1/thumb/v6-m/nofp\libgcc.a(_udivmoddi4.o)
 .xc_stack_usage.hdr
                0x00000000        0xe c:/program files/microchip/xc32/v3.01/bin/bin/../../lib/gcc/pic32c/8.3.1/thumb/v6-m/nofp\libgcc.a(_udivmoddi4.o)
 .text          0x00000000      0x2f0 c:/program files/microchip/xc32/v3.01/bin/bin/../../lib/gcc/pic32c/8.3.1/thumb/v6-m/nofp\libgcc.a(addsf3.o)
 .data          0x00000000        0x0 c:/program files/microchip/xc32/v3.01/bin/bin/../../lib/gcc/pic32c/8.3.1/thumb/v6-m/nofp\libgcc.a(addsf3.o)
 .bss           0x00000000        0x0 c:/program files/microchip/xc32/v3.01/bin/bin/../../lib/gcc/pic32c/8.3.1/thumb/v6-m/nofp\libgcc.a(addsf3.o)
 .xc_stack_usage
                0x00000000       0x1a c:/program files/microchip/xc32/v3.01/bin/bin/../../lib/gcc/pic32c/8.3.1/thumb/v6-m/nofp\libgcc.a(addsf3.o)
 .xc_stack_usage.hdr
                0x00000000        0xe c:/program files/microchip/xc32/v3.01/bin/bin/../../lib/gcc/pic32c/8.3.1/thumb/v6-m/nofp\libgcc.a(addsf3.o)
 .debug_info    0x00000000      0x626 c:/program files/microchip/xc32/v3.01/bin/bin/../../lib/gcc/pic32c/8.3.1/thumb/v6-m/nofp\libgcc.a(addsf3.o)
 .debug_abbrev  0x00000000      0x172 c:/program files/microchip/xc32/v3.01/bin/bin/../../lib/gcc/pic32c/8.3.1/thumb/v6-m/nofp\libgcc.a(addsf3.o)
 .debug_loc     0x00000000      0x8bb c:/program files/microchip/xc32/v3.01/bin/bin/../../lib/gcc/pic32c/8.3.1/thumb/v6-m/nofp\libgcc.a(addsf3.o)
 .debug_aranges
                0x00000000       0x20 c:/program files/microchip/xc32/v3.01/bin/bin/../../lib/gcc/pic32c/8.3.1/thumb/v6-m/nofp\libgcc.a(addsf3.o)
 .debug_ranges  0x00000000      0x198 c:/program files/microchip/xc32/v3.01/bin/bin/../../lib/gcc/pic32c/8.3.1/thumb/v6-m/nofp\libgcc.a(addsf3.o)
 .debug_line    0x00000000      0x2dd c:/program files/microchip/xc32/v3.01/bin/bin/../../lib/gcc/pic32c/8.3.1/thumb/v6-m/nofp\libgcc.a(addsf3.o)
 .debug_str     0x00000000       0x2c c:/program files/microchip/xc32/v3.01/bin/bin/../../lib/gcc/pic32c/8.3.1/thumb/v6-m/nofp\libgcc.a(addsf3.o)
 .comment       0x00000000       0x54 c:/program files/microchip/xc32/v3.01/bin/bin/../../lib/gcc/pic32c/8.3.1/thumb/v6-m/nofp\libgcc.a(addsf3.o)
 .debug_frame   0x00000000       0x38 c:/program files/microchip/xc32/v3.01/bin/bin/../../lib/gcc/pic32c/8.3.1/thumb/v6-m/nofp\libgcc.a(addsf3.o)
 .ARM.attributes
                0x00000000       0x2c c:/program files/microchip/xc32/v3.01/bin/bin/../../lib/gcc/pic32c/8.3.1/thumb/v6-m/nofp\libgcc.a(addsf3.o)
 .text          0x00000000      0x230 c:/program files/microchip/xc32/v3.01/bin/bin/../../lib/gcc/pic32c/8.3.1/thumb/v6-m/nofp\libgcc.a(divsf3.o)
 .data          0x00000000        0x0 c:/program files/microchip/xc32/v3.01/bin/bin/../../lib/gcc/pic32c/8.3.1/thumb/v6-m/nofp\libgcc.a(divsf3.o)
 .bss           0x00000000        0x0 c:/program files/microchip/xc32/v3.01/bin/bin/../../lib/gcc/pic32c/8.3.1/thumb/v6-m/nofp\libgcc.a(divsf3.o)
 .xc_stack_usage
                0x00000000       0x1a c:/program files/microchip/xc32/v3.01/bin/bin/../../lib/gcc/pic32c/8.3.1/thumb/v6-m/nofp\libgcc.a(divsf3.o)
 .rodata        0x00000000       0xac c:/program files/microchip/xc32/v3.01/bin/bin/../../lib/gcc/pic32c/8.3.1/thumb/v6-m/nofp\libgcc.a(divsf3.o)
 .xc_stack_usage.hdr
                0x00000000        0xe c:/program files/microchip/xc32/v3.01/bin/bin/../../lib/gcc/pic32c/8.3.1/thumb/v6-m/nofp\libgcc.a(divsf3.o)
 .debug_info    0x00000000      0x675 c:/program files/microchip/xc32/v3.01/bin/bin/../../lib/gcc/pic32c/8.3.1/thumb/v6-m/nofp\libgcc.a(divsf3.o)
 .debug_abbrev  0x00000000      0x161 c:/program files/microchip/xc32/v3.01/bin/bin/../../lib/gcc/pic32c/8.3.1/thumb/v6-m/nofp\libgcc.a(divsf3.o)
 .debug_loc     0x00000000      0x8a3 c:/program files/microchip/xc32/v3.01/bin/bin/../../lib/gcc/pic32c/8.3.1/thumb/v6-m/nofp\libgcc.a(divsf3.o)
 .debug_aranges
                0x00000000       0x20 c:/program files/microchip/xc32/v3.01/bin/bin/../../lib/gcc/pic32c/8.3.1/thumb/v6-m/nofp\libgcc.a(divsf3.o)
 .debug_ranges  0x00000000       0x80 c:/program files/microchip/xc32/v3.01/bin/bin/../../lib/gcc/pic32c/8.3.1/thumb/v6-m/nofp\libgcc.a(divsf3.o)
 .debug_line    0x00000000      0x287 c:/program files/microchip/xc32/v3.01/bin/bin/../../lib/gcc/pic32c/8.3.1/thumb/v6-m/nofp\libgcc.a(divsf3.o)
 .debug_str     0x00000000       0x30 c:/program files/microchip/xc32/v3.01/bin/bin/../../lib/gcc/pic32c/8.3.1/thumb/v6-m/nofp\libgcc.a(divsf3.o)
 .comment       0x00000000       0x54 c:/program files/microchip/xc32/v3.01/bin/bin/../../lib/gcc/pic32c/8.3.1/thumb/v6-m/nofp\libgcc.a(divsf3.o)
 .debug_frame   0x00000000       0x38 c:/program files/microchip/xc32/v3.01/bin/bin/../../lib/gcc/pic32c/8.3.1/thumb/v6-m/nofp\libgcc.a(divsf3.o)
 .ARM.attributes
                0x00000000       0x2c c:/program files/microchip/xc32/v3.01/bin/bin/../../lib/gcc/pic32c/8.3.1/thumb/v6-m/nofp\libgcc.a(divsf3.o)
 .data          0x00000000        0x0 c:/program files/microchip/xc32/v3.01/bin/bin/../../lib/gcc/pic32c/8.3.1/thumb/v6-m/nofp\libgcc.a(mulsf3.o)
 .bss           0x00000000        0x0 c:/program files/microchip/xc32/v3.01/bin/bin/../../lib/gcc/pic32c/8.3.1/thumb/v6-m/nofp\libgcc.a(mulsf3.o)
 .xc_stack_usage
                0x00000000       0x1a c:/program files/microchip/xc32/v3.01/bin/bin/../../lib/gcc/pic32c/8.3.1/thumb/v6-m/nofp\libgcc.a(mulsf3.o)
 .xc_stack_usage.hdr
                0x00000000        0xe c:/program files/microchip/xc32/v3.01/bin/bin/../../lib/gcc/pic32c/8.3.1/thumb/v6-m/nofp\libgcc.a(mulsf3.o)
 .data          0x00000000        0x0 c:/program files/microchip/xc32/v3.01/bin/bin/../../lib/gcc/pic32c/8.3.1/thumb/v6-m/nofp\libgcc.a(subsf3.o)
 .bss           0x00000000        0x0 c:/program files/microchip/xc32/v3.01/bin/bin/../../lib/gcc/pic32c/8.3.1/thumb/v6-m/nofp\libgcc.a(subsf3.o)
 .xc_stack_usage
                0x00000000       0x1a c:/program files/microchip/xc32/v3.01/bin/bin/../../lib/gcc/pic32c/8.3.1/thumb/v6-m/nofp\libgcc.a(subsf3.o)
 .xc_stack_usage.hdr
                0x00000000        0xe c:/program files/microchip/xc32/v3.01/bin/bin/../../lib/gcc/pic32c/8.3.1/thumb/v6-m/nofp\libgcc.a(subsf3.o)
 .data          0x00000000        0x0 c:/program files/microchip/xc32/v3.01/bin/bin/../../lib/gcc/pic32c/8.3.1/thumb/v6-m/nofp\libgcc.a(fixsfsi.o)
 .bss           0x00000000        0x0 c:/program files/microchip/xc32/v3.01/bin/bin/../../lib/gcc/pic32c/8.3.1/thumb/v6-m/nofp\libgcc.a(fixsfsi.o)
 .xc_stack_usage
                0x00000000       0x1a c:/program files/microchip/xc32/v3.01/bin/bin/../../lib/gcc/pic32c/8.3.1/thumb/v6-m/nofp\libgcc.a(fixsfsi.o)
 .xc_stack_usage.hdr
                0x00000000        0xe c:/program files/microchip/xc32/v3.01/bin/bin/../../lib/gcc/pic32c/8.3.1/thumb/v6-m/nofp\libgcc.a(fixsfsi.o)
 .text          0x00000000       0x90 c:/program files/microchip/xc32/v3.01/bin/bin/../../lib/gcc/pic32c/8.3.1/thumb/v6-m/nofp\libgcc.a(floatsisf.o)
 .data          0x00000000        0x0 c:/program files/microchip/xc32/v3.01/bin/bin/../../lib/gcc/pic32c/8.3.1/thumb/v6-m/nofp\libgcc.a(floatsisf.o)
 .bss           0x00000000        0x0 c:/program files/microchip/xc32/v3.01/bin/bin/../../lib/gcc/pic32c/8.3.1/thumb/v6-m/nofp\libgcc.a(floatsisf.o)
 .xc_stack_usage
                0x00000000       0x19 c:/program files/microchip/xc32/v3.01/bin/bin/../../lib/gcc/pic32c/8.3.1/thumb/v6-m/nofp\libgcc.a(floatsisf.o)
 .xc_stack_usage.hdr
                0x00000000        0xe c:/program files/microchip/xc32/v3.01/bin/bin/../../lib/gcc/pic32c/8.3.1/thumb/v6-m/nofp\libgcc.a(floatsisf.o)
 .debug_info    0x00000000      0x522 c:/program files/microchip/xc32/v3.01/bin/bin/../../lib/gcc/pic32c/8.3.1/thumb/v6-m/nofp\libgcc.a(floatsisf.o)
 .debug_abbrev  0x00000000      0x14d c:/program files/microchip/xc32/v3.01/bin/bin/../../lib/gcc/pic32c/8.3.1/thumb/v6-m/nofp\libgcc.a(floatsisf.o)
 .debug_loc     0x00000000      0x21e c:/program files/microchip/xc32/v3.01/bin/bin/../../lib/gcc/pic32c/8.3.1/thumb/v6-m/nofp\libgcc.a(floatsisf.o)
 .debug_aranges
                0x00000000       0x20 c:/program files/microchip/xc32/v3.01/bin/bin/../../lib/gcc/pic32c/8.3.1/thumb/v6-m/nofp\libgcc.a(floatsisf.o)
 .debug_ranges  0x00000000       0x38 c:/program files/microchip/xc32/v3.01/bin/bin/../../lib/gcc/pic32c/8.3.1/thumb/v6-m/nofp\libgcc.a(floatsisf.o)
 .debug_line    0x00000000      0x18e c:/program files/microchip/xc32/v3.01/bin/bin/../../lib/gcc/pic32c/8.3.1/thumb/v6-m/nofp\libgcc.a(floatsisf.o)
 .debug_str     0x00000000        0x0 c:/program files/microchip/xc32/v3.01/bin/bin/../../lib/gcc/pic32c/8.3.1/thumb/v6-m/nofp\libgcc.a(floatsisf.o)
 .comment       0x00000000       0x54 c:/program files/microchip/xc32/v3.01/bin/bin/../../lib/gcc/pic32c/8.3.1/thumb/v6-m/nofp\libgcc.a(floatsisf.o)
 .debug_frame   0x00000000       0x2c c:/program files/microchip/xc32/v3.01/bin/bin/../../lib/gcc/pic32c/8.3.1/thumb/v6-m/nofp\libgcc.a(floatsisf.o)
 .ARM.attributes
                0x00000000       0x2c c:/program files/microchip/xc32/v3.01/bin/bin/../../lib/gcc/pic32c/8.3.1/thumb/v6-m/nofp\libgcc.a(floatsisf.o)
 .data          0x00000000        0x0 c:/program files/microchip/xc32/v3.01/bin/bin/../../lib/gcc/pic32c/8.3.1/thumb/v6-m/nofp\libgcc.a(floatunsisf.o)
 .bss           0x00000000        0x0 c:/program files/microchip/xc32/v3.01/bin/bin/../../lib/gcc/pic32c/8.3.1/thumb/v6-m/nofp\libgcc.a(floatunsisf.o)
 .xc_stack_usage
                0x00000000       0x1a c:/program files/microchip/xc32/v3.01/bin/bin/../../lib/gcc/pic32c/8.3.1/thumb/v6-m/nofp\libgcc.a(floatunsisf.o)
 .xc_stack_usage.hdr
                0x00000000        0xe c:/program files/microchip/xc32/v3.01/bin/bin/../../lib/gcc/pic32c/8.3.1/thumb/v6-m/nofp\libgcc.a(floatunsisf.o)
 .data          0x00000000        0x0 c:/program files/microchip/xc32/v3.01/bin/bin/../../lib/gcc/pic32c/8.3.1/thumb/v6-m/nofp\libgcc.a(muldf3.o)
 .bss           0x00000000        0x0 c:/program files/microchip/xc32/v3.01/bin/bin/../../lib/gcc/pic32c/8.3.1/thumb/v6-m/nofp\libgcc.a(muldf3.o)
 .xc_stack_usage
                0x00000000       0x1a c:/program files/microchip/xc32/v3.01/bin/bin/../../lib/gcc/pic32c/8.3.1/thumb/v6-m/nofp\libgcc.a(muldf3.o)
 .xc_stack_usage.hdr
                0x00000000        0xe c:/program files/microchip/xc32/v3.01/bin/bin/../../lib/gcc/pic32c/8.3.1/thumb/v6-m/nofp\libgcc.a(muldf3.o)
 .data          0x00000000        0x0 c:/program files/microchip/xc32/v3.01/bin/bin/../../lib/gcc/pic32c/8.3.1/thumb/v6-m/nofp\libgcc.a(subdf3.o)
 .bss           0x00000000        0x0 c:/program files/microchip/xc32/v3.01/bin/bin/../../lib/gcc/pic32c/8.3.1/thumb/v6-m/nofp\libgcc.a(subdf3.o)
 .xc_stack_usage
                0x00000000       0x1a c:/program files/microchip/xc32/v3.01/bin/bin/../../lib/gcc/pic32c/8.3.1/thumb/v6-m/nofp\libgcc.a(subdf3.o)
 .xc_stack_usage.hdr
                0x00000000        0xe c:/program files/microchip/xc32/v3.01/bin/bin/../../lib/gcc/pic32c/8.3.1/thumb/v6-m/nofp\libgcc.a(subdf3.o)
 .data          0x00000000        0x0 c:/program files/microchip/xc32/v3.01/bin/bin/../../lib/gcc/pic32c/8.3.1/thumb/v6-m/nofp\libgcc.a(floatunsidf.o)
 .bss           0x00000000        0x0 c:/program files/microchip/xc32/v3.01/bin/bin/../../lib/gcc/pic32c/8.3.1/thumb/v6-m/nofp\libgcc.a(floatunsidf.o)
 .xc_stack_usage
                0x00000000       0x1a c:/program files/microchip/xc32/v3.01/bin/bin/../../lib/gcc/pic32c/8.3.1/thumb/v6-m/nofp\libgcc.a(floatunsidf.o)
 .xc_stack_usage.hdr
                0x00000000        0xe c:/program files/microchip/xc32/v3.01/bin/bin/../../lib/gcc/pic32c/8.3.1/thumb/v6-m/nofp\libgcc.a(floatunsidf.o)
 .data          0x00000000        0x0 c:/program files/microchip/xc32/v3.01/bin/bin/../../lib/gcc/pic32c/8.3.1/thumb/v6-m/nofp\libgcc.a(extendsfdf2.o)
 .bss           0x00000000        0x0 c:/program files/microchip/xc32/v3.01/bin/bin/../../lib/gcc/pic32c/8.3.1/thumb/v6-m/nofp\libgcc.a(extendsfdf2.o)
 .xc_stack_usage
                0x00000000       0x19 c:/program files/microchip/xc32/v3.01/bin/bin/../../lib/gcc/pic32c/8.3.1/thumb/v6-m/nofp\libgcc.a(extendsfdf2.o)
 .xc_stack_usage.hdr
                0x00000000        0xe c:/program files/microchip/xc32/v3.01/bin/bin/../../lib/gcc/pic32c/8.3.1/thumb/v6-m/nofp\libgcc.a(extendsfdf2.o)
 .data          0x00000000        0x0 c:/program files/microchip/xc32/v3.01/bin/bin/../../lib/gcc/pic32c/8.3.1/thumb/v6-m/nofp\libgcc.a(_arm_cmpsf2.o)
 .bss           0x00000000        0x0 c:/program files/microchip/xc32/v3.01/bin/bin/../../lib/gcc/pic32c/8.3.1/thumb/v6-m/nofp\libgcc.a(_arm_cmpsf2.o)
 .xc_stack_usage.hdr
                0x00000000        0xe c:/program files/microchip/xc32/v3.01/bin/bin/../../lib/gcc/pic32c/8.3.1/thumb/v6-m/nofp\libgcc.a(_arm_cmpsf2.o)
 .xc_stack_usage
                0x00000000       0xc7 c:/program files/microchip/xc32/v3.01/bin/bin/../../lib/gcc/pic32c/8.3.1/thumb/v6-m/nofp\libgcc.a(_arm_cmpsf2.o)
 .data          0x00000000        0x0 c:/program files/microchip/xc32/v3.01/bin/bin/../../lib/gcc/pic32c/8.3.1/thumb/v6-m/nofp\libgcc.a(_clzsi2.o)
 .bss           0x00000000        0x0 c:/program files/microchip/xc32/v3.01/bin/bin/../../lib/gcc/pic32c/8.3.1/thumb/v6-m/nofp\libgcc.a(_clzsi2.o)
 .xc_stack_usage.hdr
                0x00000000        0xe c:/program files/microchip/xc32/v3.01/bin/bin/../../lib/gcc/pic32c/8.3.1/thumb/v6-m/nofp\libgcc.a(_clzsi2.o)
 .xc_stack_usage
                0x00000000       0x16 c:/program files/microchip/xc32/v3.01/bin/bin/../../lib/gcc/pic32c/8.3.1/thumb/v6-m/nofp\libgcc.a(_clzsi2.o)
 .data          0x00000000        0x0 c:/program files/microchip/xc32/v3.01/bin/bin/../../lib/gcc/pic32c/8.3.1/thumb/v6-m/nofp\libgcc.a(_clzdi2.o)
 .bss           0x00000000        0x0 c:/program files/microchip/xc32/v3.01/bin/bin/../../lib/gcc/pic32c/8.3.1/thumb/v6-m/nofp\libgcc.a(_clzdi2.o)
 .xc_stack_usage.hdr
                0x00000000        0xe c:/program files/microchip/xc32/v3.01/bin/bin/../../lib/gcc/pic32c/8.3.1/thumb/v6-m/nofp\libgcc.a(_clzdi2.o)
 .xc_stack_usage
                0x00000000       0x16 c:/program files/microchip/xc32/v3.01/bin/bin/../../lib/gcc/pic32c/8.3.1/thumb/v6-m/nofp\libgcc.a(_clzdi2.o)
 .data          0x00000000        0x0 c:/program files/microchip/xc32/v3.01/bin/bin/../../lib/gcc/pic32c/8.3.1/thumb/v6-m/nofp\libgcc.a(_fixunsdfsi.o)
 .bss           0x00000000        0x0 c:/program files/microchip/xc32/v3.01/bin/bin/../../lib/gcc/pic32c/8.3.1/thumb/v6-m/nofp\libgcc.a(_fixunsdfsi.o)
 .xc_stack_usage
                0x00000000       0x1a c:/program files/microchip/xc32/v3.01/bin/bin/../../lib/gcc/pic32c/8.3.1/thumb/v6-m/nofp\libgcc.a(_fixunsdfsi.o)
 .xc_stack_usage.hdr
                0x00000000        0xe c:/program files/microchip/xc32/v3.01/bin/bin/../../lib/gcc/pic32c/8.3.1/thumb/v6-m/nofp\libgcc.a(_fixunsdfsi.o)
 .data          0x00000000        0x0 c:/program files/microchip/xc32/v3.01/bin/bin/../../lib/gcc/pic32c/8.3.1/thumb/v6-m/nofp\libgcc.a(eqsf2.o)
 .bss           0x00000000        0x0 c:/program files/microchip/xc32/v3.01/bin/bin/../../lib/gcc/pic32c/8.3.1/thumb/v6-m/nofp\libgcc.a(eqsf2.o)
 .xc_stack_usage
                0x00000000       0x15 c:/program files/microchip/xc32/v3.01/bin/bin/../../lib/gcc/pic32c/8.3.1/thumb/v6-m/nofp\libgcc.a(eqsf2.o)
 .xc_stack_usage.hdr
                0x00000000        0xe c:/program files/microchip/xc32/v3.01/bin/bin/../../lib/gcc/pic32c/8.3.1/thumb/v6-m/nofp\libgcc.a(eqsf2.o)
 .data          0x00000000        0x0 c:/program files/microchip/xc32/v3.01/bin/bin/../../lib/gcc/pic32c/8.3.1/thumb/v6-m/nofp\libgcc.a(gesf2.o)
 .bss           0x00000000        0x0 c:/program files/microchip/xc32/v3.01/bin/bin/../../lib/gcc/pic32c/8.3.1/thumb/v6-m/nofp\libgcc.a(gesf2.o)
 .xc_stack_usage
                0x00000000       0x15 c:/program files/microchip/xc32/v3.01/bin/bin/../../lib/gcc/pic32c/8.3.1/thumb/v6-m/nofp\libgcc.a(gesf2.o)
 .xc_stack_usage.hdr
                0x00000000        0xe c:/program files/microchip/xc32/v3.01/bin/bin/../../lib/gcc/pic32c/8.3.1/thumb/v6-m/nofp\libgcc.a(gesf2.o)
 .data          0x00000000        0x0 c:/program files/microchip/xc32/v3.01/bin/bin/../../lib/gcc/pic32c/8.3.1/thumb/v6-m/nofp\libgcc.a(lesf2.o)
 .bss           0x00000000        0x0 c:/program files/microchip/xc32/v3.01/bin/bin/../../lib/gcc/pic32c/8.3.1/thumb/v6-m/nofp\libgcc.a(lesf2.o)
 .xc_stack_usage
                0x00000000       0x15 c:/program files/microchip/xc32/v3.01/bin/bin/../../lib/gcc/pic32c/8.3.1/thumb/v6-m/nofp\libgcc.a(lesf2.o)
 .xc_stack_usage.hdr
                0x00000000        0xe c:/program files/microchip/xc32/v3.01/bin/bin/../../lib/gcc/pic32c/8.3.1/thumb/v6-m/nofp\libgcc.a(lesf2.o)
 .data          0x00000000        0x0 c:/program files/microchip/xc32/v3.01/bin/bin/../../lib/gcc/pic32c/8.3.1/thumb/v6-m/nofp\libgcc.a(fixdfsi.o)
 .bss           0x00000000        0x0 c:/program files/microchip/xc32/v3.01/bin/bin/../../lib/gcc/pic32c/8.3.1/thumb/v6-m/nofp\libgcc.a(fixdfsi.o)
 .xc_stack_usage
                0x00000000       0x1a c:/program files/microchip/xc32/v3.01/bin/bin/../../lib/gcc/pic32c/8.3.1/thumb/v6-m/nofp\libgcc.a(fixdfsi.o)
 .xc_stack_usage.hdr
                0x00000000        0xe c:/program files/microchip/xc32/v3.01/bin/bin/../../lib/gcc/pic32c/8.3.1/thumb/v6-m/nofp\libgcc.a(fixdfsi.o)
 .data          0x00000000        0x0 c:/program files/microchip/xc32/v3.01/bin/bin/../../lib/gcc/pic32c/8.3.1/thumb/v6-m/nofp\libgcc.a(_arm_cmpdf2.o)
 .bss           0x00000000        0x0 c:/program files/microchip/xc32/v3.01/bin/bin/../../lib/gcc/pic32c/8.3.1/thumb/v6-m/nofp\libgcc.a(_arm_cmpdf2.o)
 .xc_stack_usage.hdr
                0x00000000        0xe c:/program files/microchip/xc32/v3.01/bin/bin/../../lib/gcc/pic32c/8.3.1/thumb/v6-m/nofp\libgcc.a(_arm_cmpdf2.o)
 .xc_stack_usage
                0x00000000       0xc7 c:/program files/microchip/xc32/v3.01/bin/bin/../../lib/gcc/pic32c/8.3.1/thumb/v6-m/nofp\libgcc.a(_arm_cmpdf2.o)
 .data          0x00000000        0x0 c:/program files/microchip/xc32/v3.01/bin/bin/../../lib/gcc/pic32c/8.3.1/thumb/v6-m/nofp\libgcc.a(eqdf2.o)
 .bss           0x00000000        0x0 c:/program files/microchip/xc32/v3.01/bin/bin/../../lib/gcc/pic32c/8.3.1/thumb/v6-m/nofp\libgcc.a(eqdf2.o)
 .xc_stack_usage
                0x00000000       0x15 c:/program files/microchip/xc32/v3.01/bin/bin/../../lib/gcc/pic32c/8.3.1/thumb/v6-m/nofp\libgcc.a(eqdf2.o)
 .xc_stack_usage.hdr
                0x00000000        0xe c:/program files/microchip/xc32/v3.01/bin/bin/../../lib/gcc/pic32c/8.3.1/thumb/v6-m/nofp\libgcc.a(eqdf2.o)
 .data          0x00000000        0x0 c:/program files/microchip/xc32/v3.01/bin/bin/../../lib/gcc/pic32c/8.3.1/thumb/v6-m/nofp\libgcc.a(gedf2.o)
 .bss           0x00000000        0x0 c:/program files/microchip/xc32/v3.01/bin/bin/../../lib/gcc/pic32c/8.3.1/thumb/v6-m/nofp\libgcc.a(gedf2.o)
 .xc_stack_usage
                0x00000000       0x15 c:/program files/microchip/xc32/v3.01/bin/bin/../../lib/gcc/pic32c/8.3.1/thumb/v6-m/nofp\libgcc.a(gedf2.o)
 .xc_stack_usage.hdr
                0x00000000        0xe c:/program files/microchip/xc32/v3.01/bin/bin/../../lib/gcc/pic32c/8.3.1/thumb/v6-m/nofp\libgcc.a(gedf2.o)
 .data          0x00000000        0x0 c:/program files/microchip/xc32/v3.01/bin/bin/../../lib/gcc/pic32c/8.3.1/thumb/v6-m/nofp\libgcc.a(ledf2.o)
 .bss           0x00000000        0x0 c:/program files/microchip/xc32/v3.01/bin/bin/../../lib/gcc/pic32c/8.3.1/thumb/v6-m/nofp\libgcc.a(ledf2.o)
 .xc_stack_usage
                0x00000000       0x15 c:/program files/microchip/xc32/v3.01/bin/bin/../../lib/gcc/pic32c/8.3.1/thumb/v6-m/nofp\libgcc.a(ledf2.o)
 .xc_stack_usage.hdr
                0x00000000        0xe c:/program files/microchip/xc32/v3.01/bin/bin/../../lib/gcc/pic32c/8.3.1/thumb/v6-m/nofp\libgcc.a(ledf2.o)
 .text          0x00000000        0x0 c:/program files/microchip/xc32/v3.01/bin/bin/../../lib/gcc/pic32c/8.3.1/../../../../pic32c/lib/thumb/v6-m/nofp\libc_nano.a(lib_a-init.o)
 .data          0x00000000        0x0 c:/program files/microchip/xc32/v3.01/bin/bin/../../lib/gcc/pic32c/8.3.1/../../../../pic32c/lib/thumb/v6-m/nofp\libc_nano.a(lib_a-init.o)
 .bss           0x00000000        0x0 c:/program files/microchip/xc32/v3.01/bin/bin/../../lib/gcc/pic32c/8.3.1/../../../../pic32c/lib/thumb/v6-m/nofp\libc_nano.a(lib_a-init.o)
 .xc_stack_usage
                0x00000000       0x1f c:/program files/microchip/xc32/v3.01/bin/bin/../../lib/gcc/pic32c/8.3.1/../../../../pic32c/lib/thumb/v6-m/nofp\libc_nano.a(lib_a-init.o)
 .xc_stack_usage.hdr
                0x00000000        0xe c:/program files/microchip/xc32/v3.01/bin/bin/../../lib/gcc/pic32c/8.3.1/../../../../pic32c/lib/thumb/v6-m/nofp\libc_nano.a(lib_a-init.o)
 .text          0x00000000        0x0 c:/program files/microchip/xc32/v3.01/bin/bin/../../lib/gcc/pic32c/8.3.1/../../../../pic32c/lib/thumb/v6-m/nofp\libc_nano.a(lib_a-memcpy-stub.o)
 .data          0x00000000        0x0 c:/program files/microchip/xc32/v3.01/bin/bin/../../lib/gcc/pic32c/8.3.1/../../../../pic32c/lib/thumb/v6-m/nofp\libc_nano.a(lib_a-memcpy-stub.o)
 .bss           0x00000000        0x0 c:/program files/microchip/xc32/v3.01/bin/bin/../../lib/gcc/pic32c/8.3.1/../../../../pic32c/lib/thumb/v6-m/nofp\libc_nano.a(lib_a-memcpy-stub.o)
 .xc_stack_usage
                0x00000000       0x14 c:/program files/microchip/xc32/v3.01/bin/bin/../../lib/gcc/pic32c/8.3.1/../../../../pic32c/lib/thumb/v6-m/nofp\libc_nano.a(lib_a-memcpy-stub.o)
 .text.memcpy   0x00000000       0x12 c:/program files/microchip/xc32/v3.01/bin/bin/../../lib/gcc/pic32c/8.3.1/../../../../pic32c/lib/thumb/v6-m/nofp\libc_nano.a(lib_a-memcpy-stub.o)
 .xc_stack_usage.hdr
                0x00000000        0xe c:/program files/microchip/xc32/v3.01/bin/bin/../../lib/gcc/pic32c/8.3.1/../../../../pic32c/lib/thumb/v6-m/nofp\libc_nano.a(lib_a-memcpy-stub.o)
 .comment       0x00000000       0x54 c:/program files/microchip/xc32/v3.01/bin/bin/../../lib/gcc/pic32c/8.3.1/../../../../pic32c/lib/thumb/v6-m/nofp\libc_nano.a(lib_a-memcpy-stub.o)
 .ARM.attributes
                0x00000000       0x2c c:/program files/microchip/xc32/v3.01/bin/bin/../../lib/gcc/pic32c/8.3.1/../../../../pic32c/lib/thumb/v6-m/nofp\libc_nano.a(lib_a-memcpy-stub.o)
 .text          0x00000000        0x0 c:/program files/microchip/xc32/v3.01/bin/bin/../../lib/gcc/pic32c/8.3.1/../../../../pic32c/lib/thumb/v6-m/nofp\libc_nano.a(lib_a-memset.o)
 .data          0x00000000        0x0 c:/program files/microchip/xc32/v3.01/bin/bin/../../lib/gcc/pic32c/8.3.1/../../../../pic32c/lib/thumb/v6-m/nofp\libc_nano.a(lib_a-memset.o)
 .bss           0x00000000        0x0 c:/program files/microchip/xc32/v3.01/bin/bin/../../lib/gcc/pic32c/8.3.1/../../../../pic32c/lib/thumb/v6-m/nofp\libc_nano.a(lib_a-memset.o)
 .xc_stack_usage
                0x00000000       0x14 c:/program files/microchip/xc32/v3.01/bin/bin/../../lib/gcc/pic32c/8.3.1/../../../../pic32c/lib/thumb/v6-m/nofp\libc_nano.a(lib_a-memset.o)
 .text.memset   0x00000000       0x10 c:/program files/microchip/xc32/v3.01/bin/bin/../../lib/gcc/pic32c/8.3.1/../../../../pic32c/lib/thumb/v6-m/nofp\libc_nano.a(lib_a-memset.o)
 .xc_stack_usage.hdr
                0x00000000        0xe c:/program files/microchip/xc32/v3.01/bin/bin/../../lib/gcc/pic32c/8.3.1/../../../../pic32c/lib/thumb/v6-m/nofp\libc_nano.a(lib_a-memset.o)
 .comment       0x00000000       0x54 c:/program files/microchip/xc32/v3.01/bin/bin/../../lib/gcc/pic32c/8.3.1/../../../../pic32c/lib/thumb/v6-m/nofp\libc_nano.a(lib_a-memset.o)
 .ARM.attributes
                0x00000000       0x2c c:/program files/microchip/xc32/v3.01/bin/bin/../../lib/gcc/pic32c/8.3.1/../../../../pic32c/lib/thumb/v6-m/nofp\libc_nano.a(lib_a-memset.o)
 .text          0x00000000        0x0 c:/program files/microchip/xc32/v3.01/bin/bin/../../lib/gcc/pic32c/8.3.1/thumb/v6-m/nofp/crtend.o
 .data          0x00000000        0x0 c:/program files/microchip/xc32/v3.01/bin/bin/../../lib/gcc/pic32c/8.3.1/thumb/v6-m/nofp/crtend.o
 .bss           0x00000000        0x0 c:/program files/microchip/xc32/v3.01/bin/bin/../../lib/gcc/pic32c/8.3.1/thumb/v6-m/nofp/crtend.o
 .eh_frame      0x00000000        0x4 c:/program files/microchip/xc32/v3.01/bin/bin/../../lib/gcc/pic32c/8.3.1/thumb/v6-m/nofp/crtend.o
 .xc_stack_usage.hdr
                0x00000000        0xe c:/program files/microchip/xc32/v3.01/bin/bin/../../lib/gcc/pic32c/8.3.1/thumb/v6-m/nofp/crtend.o
 .comment       0x00000000       0x54 c:/program files/microchip/xc32/v3.01/bin/bin/../../lib/gcc/pic32c/8.3.1/thumb/v6-m/nofp/crtend.o
 .ARM.attributes
                0x00000000       0x2c c:/program files/microchip/xc32/v3.01/bin/bin/../../lib/gcc/pic32c/8.3.1/thumb/v6-m/nofp/crtend.o
 .text          0x00000000        0x0 c:/program files/microchip/xc32/v3.01/bin/bin/../../lib/gcc/pic32c/8.3.1/thumb/v6-m/nofp/crtn.o
 .data          0x00000000        0x0 c:/program files/microchip/xc32/v3.01/bin/bin/../../lib/gcc/pic32c/8.3.1/thumb/v6-m/nofp/crtn.o
 .bss           0x00000000        0x0 c:/program files/microchip/xc32/v3.01/bin/bin/../../lib/gcc/pic32c/8.3.1/thumb/v6-m/nofp/crtn.o
 .xc_stack_usage.hdr
                0x00000000        0xe c:/program files/microchip/xc32/v3.01/bin/bin/../../lib/gcc/pic32c/8.3.1/thumb/v6-m/nofp/crtn.o

Memory Configuration

Name             Origin             Length             Attributes
rom              0x00000000         0x00040000         xrl
ram              0x20000000         0x00008000         xw !r
lpram            0x30000000         0x00002000         xw !r
config_D0804000  0xd0804000         0x00000004
config_D0806020  0xd0806020         0x00000004
config_D0804004  0xd0804004         0x00000004
config_D0806034  0xd0806034         0x00000004
config_D0806030  0xd0806030         0x00000004
*default*        0x00000000         0xffffffff

Linker script and memory map

LOAD c:/program files/microchip/xc32/v3.01/bin/bin/../../lib/gcc/pic32c/8.3.1/thumb/v6-m/nofp/crti.o
LOAD c:/program files/microchip/xc32/v3.01/bin/bin/../../lib/gcc/pic32c/8.3.1/thumb/v6-m/nofp/crtbegin.o
LOAD build/default/production/_ext/1824788055/radio_driver_hal.o
LOAD build/default/production/_ext/1824788055/sleep.o
LOAD build/default/production/_ext/1824788055/sleep_timer.o
LOAD build/default/production/_ext/1824788055/sys.o
LOAD build/default/production/_ext/1824796116/pmm.o
LOAD build/default/production/_ext/2120447010/lorawan_mband_eu.o
LOAD build/default/production/_ext/282161921/sw_timer.o
LOAD build/default/production/_ext/1824799377/system_assert.o
LOAD build/default/production/_ext/1824799377/system_init.o
LOAD build/default/production/_ext/1824799377/system_task_manager.o
LOAD build/default/production/_ext/22805713/radio_driver_sx1276.o
LOAD build/default/production/_ext/1824799587/radio_get_set.o
LOAD build/default/production/_ext/1824799587/radio_interface.o
LOAD build/default/production/_ext/1824799587/radio_lbt.o
LOAD build/default/production/_ext/1824799587/radio_task_manager.o
LOAD build/default/production/_ext/1824799587/radio_transaction.o
LOAD build/default/production/_ext/1530445869/radioconfig.o
LOAD build/default/production/_ext/60163342/plib_adc.o
LOAD build/default/production/_ext/1984496892/plib_clock.o
LOAD build/default/production/_ext/60167341/plib_eic.o
LOAD build/default/production/_ext/1986646378/plib_evsys.o
LOAD build/default/production/_ext/1865468468/plib_nvic.o
LOAD build/default/production/_ext/1593096446/plib_nvmctrl.o
LOAD build/default/production/_ext/829342769/plib_pm.o
LOAD build/default/production/_ext/1865521619/plib_port.o
LOAD build/default/production/_ext/1865585090/plib_rstc.o
LOAD build/default/production/_ext/60180175/plib_rtc_timer.o
LOAD build/default/production/_ext/508257091/plib_sercom1_i2c_master.o
LOAD build/default/production/_ext/17022449/plib_sercom4_spi_master.o
LOAD build/default/production/_ext/504274921/plib_sercom0_usart.o
LOAD build/default/production/_ext/1865616679/plib_supc.o
LOAD build/default/production/_ext/1827571544/plib_systick.o
LOAD build/default/production/_ext/829342655/plib_tc0.o
LOAD build/default/production/_ext/163028504/xc32_monitor.o
LOAD build/default/production/_ext/1881668453/sys_int.o
LOAD build/default/production/_ext/1000052432/sys_reset.o
LOAD build/default/production/_ext/1171490990/exceptions.o
LOAD build/default/production/_ext/1171490990/interrupts.o
LOAD build/default/production/_ext/1171490990/startup_xc32.o
LOAD build/default/production/_ext/1171490990/initialization.o
LOAD build/default/production/_ext/1171490990/libc_syscalls.o
LOAD build/default/production/_ext/1530445869/tasks.o
LOAD build/default/production/_ext/1530445869/app.o
LOAD build/default/production/_ext/1360937237/main.o
                0x00000001                __MPLAB_BUILD = 0x1
                0x00040000                __rom_end = (ORIGIN (rom) + LENGTH (rom))
                0x20008000                __ram_end = (ORIGIN (ram) + LENGTH (ram))

.config_D0804000
 *(.config_D0804000)

.config_D0806020
 *(.config_D0806020)

.config_D0804004
 *(.config_D0804004)

.config_D0806034
 *(.config_D0806034)

.config_D0806030
 *(.config_D0806030)

.vectors        0x00000000       0xb0
                0x00000000                . = ALIGN (0x4)
                0x00000000                _sfixed = .
 *(.vectors .vectors.* .vectors_default .vectors_default.*)
 .vectors       0x00000000       0xb0 build/default/production/_ext/1171490990/interrupts.o
                0x00000000                exception_table
 *(.isr_vector)
 *(.reset*)
 *(.after_vectors)

.text           0x000000b0       0x20
                0x000000b0                . = ALIGN (0x4)
 *(.glue_7t)
 .glue_7t       0x000000b0        0x0 linker stubs
 *(.glue_7)
 .glue_7        0x000000b0        0x0 linker stubs
 *(.gnu.linkonce.r.*)
 *(.ARM.extab* .gnu.linkonce.armextab.*)
                0x000000b0                . = ALIGN (0x4)
 *(.init)
 .init          0x000000b0        0x4 c:/program files/microchip/xc32/v3.01/bin/bin/../../lib/gcc/pic32c/8.3.1/thumb/v6-m/nofp/crti.o
                0x000000b0                _init
 .init          0x000000b4        0x8 c:/program files/microchip/xc32/v3.01/bin/bin/../../lib/gcc/pic32c/8.3.1/thumb/v6-m/nofp/crtn.o
                0x000000bc                . = ALIGN (0x4)
                0x000000bc                __preinit_array_start = .
 *(.preinit_array)
                0x000000bc                __preinit_array_end = .
                0x000000bc                . = ALIGN (0x4)
                0x000000bc                __init_array_start = .
 *(SORT_BY_NAME(.init_array.*))
 *(.init_array)
 .init_array    0x000000bc        0x4 c:/program files/microchip/xc32/v3.01/bin/bin/../../lib/gcc/pic32c/8.3.1/thumb/v6-m/nofp/crtbegin.o
                0x000000c0                __init_array_end = .
                0x000000c0                . = ALIGN (0x4)
 *crtbegin.o(.ctors)
 *(EXCLUDE_FILE(*crtend.o) .ctors)
 *(SORT_BY_NAME(.ctors.*))
 *crtend.o(.ctors)
                0x000000c0                . = ALIGN (0x4)
 *(.fini)
 .fini          0x000000c0        0x4 c:/program files/microchip/xc32/v3.01/bin/bin/../../lib/gcc/pic32c/8.3.1/thumb/v6-m/nofp/crti.o
                0x000000c0                _fini
 .fini          0x000000c4        0x8 c:/program files/microchip/xc32/v3.01/bin/bin/../../lib/gcc/pic32c/8.3.1/thumb/v6-m/nofp/crtn.o
                0x000000cc                . = ALIGN (0x4)
                0x000000cc                __fini_array_start = .
 *(.fini_array)
 .fini_array    0x000000cc        0x4 c:/program files/microchip/xc32/v3.01/bin/bin/../../lib/gcc/pic32c/8.3.1/thumb/v6-m/nofp/crtbegin.o
 *(SORT_BY_NAME(.fini_array.*))
                0x000000d0                __fini_array_end = .
 *crtbegin.o(.dtors)
 *(EXCLUDE_FILE(*crtend.o) .dtors)
 *(SORT_BY_NAME(.dtors.*))
 *crtend.o(.dtors)
                0x000000d0                . = ALIGN (0x4)
                0x000000d0                _efixed = .
                [!provide]                PROVIDE (__exidx_start = .)

.ARM.exidx      0x000000d0        0x8
 *(.ARM.exidx* .gnu.linkonce.armexidx.*)
 .ARM.exidx     0x000000d0        0x8 c:/program files/microchip/xc32/v3.01/bin/bin/../../lib/gcc/pic32c/8.3.1/thumb/v6-m/nofp\libgcc.a(_udivmoddi4.o)
                [!provide]                PROVIDE (__exidx_end = .)
                0x000000d8                . = ALIGN (0x4)
                0x000000d8                _etext = .

.bss            0x20000000        0x0
                0x20000000                . = ALIGN (0x4)
                0x20000000                __bss_start__ = .
                0x20000000                _sbss = .
                0x20000000                _szero = .
 *(COMMON)
                0x20000000                . = ALIGN (0x4)
                0x20000000                __bss_end__ = .
                0x20000000                _ebss = .
                0x20000000                _ezero = .
                0x20000000                . = ALIGN (0x4)
                0x20000000                _end = .
                0x20007fff                _ram_end_ = ((ORIGIN (ram) + LENGTH (ram)) - 0x1)

.lpram_output   0x30000000        0x0
                0x30000000                . = ALIGN (0x4)
 *(.lpram .lpram.*)
                0x30000000                . = ALIGN (0x4)
                0x30000000                . = ALIGN (0x4)
                0x30001fff                _lpram_end_ = ((ORIGIN (lpram) + LENGTH (lpram)) - 0x1)
                0x00000200                _min_heap_size = 0x200
START GROUP
LOAD c:/program files/microchip/xc32/v3.01/bin/bin/../../lib/gcc/pic32c/8.3.1/../../../../pic32c/lib/thumb/v6-m/nofp\libpic32c.a
LOAD c:/program files/microchip/xc32/v3.01/bin/bin/../../lib/gcc/pic32c/8.3.1/thumb/v6-m/nofp\libgcc.a
LOAD c:/program files/microchip/xc32/v3.01/bin/bin/../../lib/gcc/pic32c/8.3.1/../../../../pic32c/lib/thumb/v6-m/nofp\libm_nano.a
LOAD c:/program files/microchip/xc32/v3.01/bin/bin/../../lib/gcc/pic32c/8.3.1/../../../../pic32c/lib/thumb/v6-m/nofp\libc_nano.a
END GROUP
LOAD c:/program files/microchip/xc32/v3.01/bin/bin/../../lib/gcc/pic32c/8.3.1/thumb/v6-m/nofp/crtend.o
LOAD c:/program files/microchip/xc32/v3.01/bin/bin/../../lib/gcc/pic32c/8.3.1/thumb/v6-m/nofp/crtn.o
OUTPUT(dist/default/production/Lorafrom0.X.production.elf elf32-littlearm)
LOAD stack
LOAD data_init

.ARM.attributes
                0x00000000       0x2a
 .ARM.attributes
                0x00000000       0x1e c:/program files/microchip/xc32/v3.01/bin/bin/../../lib/gcc/pic32c/8.3.1/thumb/v6-m/nofp/crti.o
 .ARM.attributes
                0x0000001e       0x2c c:/program files/microchip/xc32/v3.01/bin/bin/../../lib/gcc/pic32c/8.3.1/thumb/v6-m/nofp/crtbegin.o
 .ARM.attributes
                0x0000004a       0x2c build/default/production/_ext/1824788055/radio_driver_hal.o
 .ARM.attributes
                0x00000076       0x2c build/default/production/_ext/1824788055/sleep.o
 .ARM.attributes
                0x000000a2       0x2c build/default/production/_ext/1824788055/sleep_timer.o
 .ARM.attributes
                0x000000ce       0x2c build/default/production/_ext/1824788055/sys.o
 .ARM.attributes
                0x000000fa       0x2c build/default/production/_ext/1824796116/pmm.o
 .ARM.attributes
                0x00000126       0x2c build/default/production/_ext/282161921/sw_timer.o
 .ARM.attributes
                0x00000152       0x2c build/default/production/_ext/1824799377/system_task_manager.o
 .ARM.attributes
                0x0000017e       0x2c build/default/production/_ext/22805713/radio_driver_sx1276.o
 .ARM.attributes
                0x000001aa       0x2c build/default/production/_ext/1824799587/radio_get_set.o
 .ARM.attributes
                0x000001d6       0x2c build/default/production/_ext/1824799587/radio_interface.o
 .ARM.attributes
                0x00000202       0x2c build/default/production/_ext/1824799587/radio_lbt.o
 .ARM.attributes
                0x0000022e       0x2c build/default/production/_ext/1824799587/radio_task_manager.o
 .ARM.attributes
                0x0000025a       0x2c build/default/production/_ext/1824799587/radio_transaction.o
 .ARM.attributes
                0x00000286       0x2c build/default/production/_ext/60163342/plib_adc.o
 .ARM.attributes
                0x000002b2       0x2c build/default/production/_ext/1984496892/plib_clock.o
 .ARM.attributes
                0x000002de       0x2c build/default/production/_ext/60167341/plib_eic.o
 .ARM.attributes
                0x0000030a       0x2c build/default/production/_ext/1986646378/plib_evsys.o
 .ARM.attributes
                0x00000336       0x2c build/default/production/_ext/1865468468/plib_nvic.o
 .ARM.attributes
                0x00000362       0x2c build/default/production/_ext/1593096446/plib_nvmctrl.o
 .ARM.attributes
                0x0000038e       0x2c build/default/production/_ext/829342769/plib_pm.o
 .ARM.attributes
                0x000003ba       0x2c build/default/production/_ext/1865521619/plib_port.o
 .ARM.attributes
                0x000003e6       0x2c build/default/production/_ext/1865585090/plib_rstc.o
 .ARM.attributes
                0x00000412       0x2c build/default/production/_ext/60180175/plib_rtc_timer.o
 .ARM.attributes
                0x0000043e       0x2c build/default/production/_ext/17022449/plib_sercom4_spi_master.o
 .ARM.attributes
                0x0000046a       0x2c build/default/production/_ext/1865616679/plib_supc.o
 .ARM.attributes
                0x00000496       0x2c build/default/production/_ext/1827571544/plib_systick.o
 .ARM.attributes
                0x000004c2       0x2c build/default/production/_ext/829342655/plib_tc0.o
 .ARM.attributes
                0x000004ee       0x2c build/default/production/_ext/1881668453/sys_int.o
 .ARM.attributes
                0x0000051a       0x2c build/default/production/_ext/1171490990/exceptions.o
 .ARM.attributes
                0x00000546       0x2c build/default/production/_ext/1171490990/interrupts.o
 .ARM.attributes
                0x00000572       0x2c build/default/production/_ext/1171490990/startup_xc32.o
 .ARM.attributes
                0x0000059e       0x2c build/default/production/_ext/1171490990/initialization.o
 .ARM.attributes
                0x000005ca       0x2c build/default/production/_ext/1530445869/tasks.o
 .ARM.attributes
                0x000005f6       0x2c build/default/production/_ext/1530445869/app.o
 .ARM.attributes
                0x00000622       0x2c build/default/production/_ext/1360937237/main.o
 .ARM.attributes
                0x0000064e       0x2c c:/program files/microchip/xc32/v3.01/bin/bin/../../lib/gcc/pic32c/8.3.1/../../../../pic32c/lib/thumb/v6-m/nofp\libpic32c.a(data_init.o)
 .ARM.attributes
                0x0000067a       0x1e c:/program files/microchip/xc32/v3.01/bin/bin/../../lib/gcc/pic32c/8.3.1/thumb/v6-m/nofp\libgcc.a(_udivsi3.o)
 .ARM.attributes
                0x00000698       0x1e c:/program files/microchip/xc32/v3.01/bin/bin/../../lib/gcc/pic32c/8.3.1/thumb/v6-m/nofp\libgcc.a(_divsi3.o)
 .ARM.attributes
                0x000006b6       0x1e c:/program files/microchip/xc32/v3.01/bin/bin/../../lib/gcc/pic32c/8.3.1/thumb/v6-m/nofp\libgcc.a(_dvmd_tls.o)
 .ARM.attributes
                0x000006d4       0x1e c:/program files/microchip/xc32/v3.01/bin/bin/../../lib/gcc/pic32c/8.3.1/thumb/v6-m/nofp\libgcc.a(_aeabi_uldivmod.o)
 .ARM.attributes
                0x000006f2       0x2c c:/program files/microchip/xc32/v3.01/bin/bin/../../lib/gcc/pic32c/8.3.1/thumb/v6-m/nofp\libgcc.a(_fixunssfsi.o)
 .ARM.attributes
                0x0000071e       0x2c c:/program files/microchip/xc32/v3.01/bin/bin/../../lib/gcc/pic32c/8.3.1/thumb/v6-m/nofp\libgcc.a(_fixunssfdi.o)
 .ARM.attributes
                0x0000074a       0x2c c:/program files/microchip/xc32/v3.01/bin/bin/../../lib/gcc/pic32c/8.3.1/thumb/v6-m/nofp\libgcc.a(_udivmoddi4.o)
 .ARM.attributes
                0x00000776       0x2c c:/program files/microchip/xc32/v3.01/bin/bin/../../lib/gcc/pic32c/8.3.1/thumb/v6-m/nofp\libgcc.a(mulsf3.o)
 .ARM.attributes
                0x000007a2       0x2c c:/program files/microchip/xc32/v3.01/bin/bin/../../lib/gcc/pic32c/8.3.1/thumb/v6-m/nofp\libgcc.a(subsf3.o)
 .ARM.attributes
                0x000007ce       0x2c c:/program files/microchip/xc32/v3.01/bin/bin/../../lib/gcc/pic32c/8.3.1/thumb/v6-m/nofp\libgcc.a(fixsfsi.o)
 .ARM.attributes
                0x000007fa       0x2c c:/program files/microchip/xc32/v3.01/bin/bin/../../lib/gcc/pic32c/8.3.1/thumb/v6-m/nofp\libgcc.a(floatunsisf.o)
 .ARM.attributes
                0x00000826       0x2c c:/program files/microchip/xc32/v3.01/bin/bin/../../lib/gcc/pic32c/8.3.1/thumb/v6-m/nofp\libgcc.a(muldf3.o)
 .ARM.attributes
                0x00000852       0x2c c:/program files/microchip/xc32/v3.01/bin/bin/../../lib/gcc/pic32c/8.3.1/thumb/v6-m/nofp\libgcc.a(subdf3.o)
 .ARM.attributes
                0x0000087e       0x2c c:/program files/microchip/xc32/v3.01/bin/bin/../../lib/gcc/pic32c/8.3.1/thumb/v6-m/nofp\libgcc.a(floatunsidf.o)
 .ARM.attributes
                0x000008aa       0x2c c:/program files/microchip/xc32/v3.01/bin/bin/../../lib/gcc/pic32c/8.3.1/thumb/v6-m/nofp\libgcc.a(extendsfdf2.o)
 .ARM.attributes
                0x000008d6       0x1e c:/program files/microchip/xc32/v3.01/bin/bin/../../lib/gcc/pic32c/8.3.1/thumb/v6-m/nofp\libgcc.a(_arm_cmpsf2.o)
 .ARM.attributes
                0x000008f4       0x1e c:/program files/microchip/xc32/v3.01/bin/bin/../../lib/gcc/pic32c/8.3.1/thumb/v6-m/nofp\libgcc.a(_clzsi2.o)
 .ARM.attributes
                0x00000912       0x1e c:/program files/microchip/xc32/v3.01/bin/bin/../../lib/gcc/pic32c/8.3.1/thumb/v6-m/nofp\libgcc.a(_clzdi2.o)
 .ARM.attributes
                0x00000930       0x2c c:/program files/microchip/xc32/v3.01/bin/bin/../../lib/gcc/pic32c/8.3.1/thumb/v6-m/nofp\libgcc.a(_fixunsdfsi.o)
 .ARM.attributes
                0x0000095c       0x2c c:/program files/microchip/xc32/v3.01/bin/bin/../../lib/gcc/pic32c/8.3.1/thumb/v6-m/nofp\libgcc.a(eqsf2.o)
 .ARM.attributes
                0x00000988       0x2c c:/program files/microchip/xc32/v3.01/bin/bin/../../lib/gcc/pic32c/8.3.1/thumb/v6-m/nofp\libgcc.a(gesf2.o)
 .ARM.attributes
                0x000009b4       0x2c c:/program files/microchip/xc32/v3.01/bin/bin/../../lib/gcc/pic32c/8.3.1/thumb/v6-m/nofp\libgcc.a(lesf2.o)
 .ARM.attributes
                0x000009e0       0x2c c:/program files/microchip/xc32/v3.01/bin/bin/../../lib/gcc/pic32c/8.3.1/thumb/v6-m/nofp\libgcc.a(fixdfsi.o)
 .ARM.attributes
                0x00000a0c       0x1e c:/program files/microchip/xc32/v3.01/bin/bin/../../lib/gcc/pic32c/8.3.1/thumb/v6-m/nofp\libgcc.a(_arm_cmpdf2.o)
 .ARM.attributes
                0x00000a2a       0x2c c:/program files/microchip/xc32/v3.01/bin/bin/../../lib/gcc/pic32c/8.3.1/thumb/v6-m/nofp\libgcc.a(eqdf2.o)
 .ARM.attributes
                0x00000a56       0x2c c:/program files/microchip/xc32/v3.01/bin/bin/../../lib/gcc/pic32c/8.3.1/thumb/v6-m/nofp\libgcc.a(gedf2.o)
 .ARM.attributes
                0x00000a82       0x2c c:/program files/microchip/xc32/v3.01/bin/bin/../../lib/gcc/pic32c/8.3.1/thumb/v6-m/nofp\libgcc.a(ledf2.o)
 .ARM.attributes
                0x00000aae       0x2c c:/program files/microchip/xc32/v3.01/bin/bin/../../lib/gcc/pic32c/8.3.1/../../../../pic32c/lib/thumb/v6-m/nofp\libc_nano.a(lib_a-init.o)
 .ARM.attributes
                0x00000ada       0x1e c:/program files/microchip/xc32/v3.01/bin/bin/../../lib/gcc/pic32c/8.3.1/thumb/v6-m/nofp/crtn.o

.comment        0x00000000       0x53
 .comment       0x00000000       0x53 c:/program files/microchip/xc32/v3.01/bin/bin/../../lib/gcc/pic32c/8.3.1/thumb/v6-m/nofp/crtbegin.o
                                 0x54 (size before relaxing)
 .comment       0x00000053       0x54 build/default/production/_ext/1824788055/radio_driver_hal.o
 .comment       0x00000053       0x54 build/default/production/_ext/1824788055/sleep.o
 .comment       0x00000053       0x54 build/default/production/_ext/1824788055/sleep_timer.o
 .comment       0x00000053       0x54 build/default/production/_ext/1824788055/sys.o
 .comment       0x00000053       0x54 build/default/production/_ext/1824796116/pmm.o
 .comment       0x00000053       0x54 build/default/production/_ext/282161921/sw_timer.o
 .comment       0x00000053       0x54 build/default/production/_ext/1824799377/system_task_manager.o
 .comment       0x00000053       0x54 build/default/production/_ext/22805713/radio_driver_sx1276.o
 .comment       0x00000053       0x54 build/default/production/_ext/1824799587/radio_get_set.o
 .comment       0x00000053       0x54 build/default/production/_ext/1824799587/radio_interface.o
 .comment       0x00000053       0x54 build/default/production/_ext/1824799587/radio_lbt.o
 .comment       0x00000053       0x54 build/default/production/_ext/1824799587/radio_task_manager.o
 .comment       0x00000053       0x54 build/default/production/_ext/1824799587/radio_transaction.o
 .comment       0x00000053       0x54 build/default/production/_ext/60163342/plib_adc.o
 .comment       0x00000053       0x54 build/default/production/_ext/1984496892/plib_clock.o
 .comment       0x00000053       0x54 build/default/production/_ext/60167341/plib_eic.o
 .comment       0x00000053       0x54 build/default/production/_ext/1986646378/plib_evsys.o
 .comment       0x00000053       0x54 build/default/production/_ext/1865468468/plib_nvic.o
 .comment       0x00000053       0x54 build/default/production/_ext/1593096446/plib_nvmctrl.o
 .comment       0x00000053       0x54 build/default/production/_ext/829342769/plib_pm.o
 .comment       0x00000053       0x54 build/default/production/_ext/1865521619/plib_port.o
 .comment       0x00000053       0x54 build/default/production/_ext/1865585090/plib_rstc.o
 .comment       0x00000053       0x54 build/default/production/_ext/60180175/plib_rtc_timer.o
 .comment       0x00000053       0x54 build/default/production/_ext/17022449/plib_sercom4_spi_master.o
 .comment       0x00000053       0x54 build/default/production/_ext/1865616679/plib_supc.o
 .comment       0x00000053       0x54 build/default/production/_ext/1827571544/plib_systick.o
 .comment       0x00000053       0x54 build/default/production/_ext/829342655/plib_tc0.o
 .comment       0x00000053       0x54 build/default/production/_ext/1881668453/sys_int.o
 .comment       0x00000053       0x54 build/default/production/_ext/1171490990/exceptions.o
 .comment       0x00000053       0x54 build/default/production/_ext/1171490990/interrupts.o
 .comment       0x00000053       0x54 build/default/production/_ext/1171490990/startup_xc32.o
 .comment       0x00000053       0x54 build/default/production/_ext/1171490990/initialization.o
 .comment       0x00000053       0x54 build/default/production/_ext/1530445869/tasks.o
 .comment       0x00000053       0x54 build/default/production/_ext/1530445869/app.o
 .comment       0x00000053       0x54 build/default/production/_ext/1360937237/main.o
 .comment       0x00000053       0x54 c:/program files/microchip/xc32/v3.01/bin/bin/../../lib/gcc/pic32c/8.3.1/../../../../pic32c/lib/thumb/v6-m/nofp\libpic32c.a(data_init.o)
 .comment       0x00000053       0x54 c:/program files/microchip/xc32/v3.01/bin/bin/../../lib/gcc/pic32c/8.3.1/thumb/v6-m/nofp\libgcc.a(_fixunssfsi.o)
 .comment       0x00000053       0x54 c:/program files/microchip/xc32/v3.01/bin/bin/../../lib/gcc/pic32c/8.3.1/thumb/v6-m/nofp\libgcc.a(_fixunssfdi.o)
 .comment       0x00000053       0x54 c:/program files/microchip/xc32/v3.01/bin/bin/../../lib/gcc/pic32c/8.3.1/thumb/v6-m/nofp\libgcc.a(_udivmoddi4.o)
 .comment       0x00000053       0x54 c:/program files/microchip/xc32/v3.01/bin/bin/../../lib/gcc/pic32c/8.3.1/thumb/v6-m/nofp\libgcc.a(mulsf3.o)
 .comment       0x00000053       0x54 c:/program files/microchip/xc32/v3.01/bin/bin/../../lib/gcc/pic32c/8.3.1/thumb/v6-m/nofp\libgcc.a(subsf3.o)
 .comment       0x00000053       0x54 c:/program files/microchip/xc32/v3.01/bin/bin/../../lib/gcc/pic32c/8.3.1/thumb/v6-m/nofp\libgcc.a(fixsfsi.o)
 .comment       0x00000053       0x54 c:/program files/microchip/xc32/v3.01/bin/bin/../../lib/gcc/pic32c/8.3.1/thumb/v6-m/nofp\libgcc.a(floatunsisf.o)
 .comment       0x00000053       0x54 c:/program files/microchip/xc32/v3.01/bin/bin/../../lib/gcc/pic32c/8.3.1/thumb/v6-m/nofp\libgcc.a(muldf3.o)
 .comment       0x00000053       0x54 c:/program files/microchip/xc32/v3.01/bin/bin/../../lib/gcc/pic32c/8.3.1/thumb/v6-m/nofp\libgcc.a(subdf3.o)
 .comment       0x00000053       0x54 c:/program files/microchip/xc32/v3.01/bin/bin/../../lib/gcc/pic32c/8.3.1/thumb/v6-m/nofp\libgcc.a(floatunsidf.o)
 .comment       0x00000053       0x54 c:/program files/microchip/xc32/v3.01/bin/bin/../../lib/gcc/pic32c/8.3.1/thumb/v6-m/nofp\libgcc.a(extendsfdf2.o)
 .comment       0x00000053       0x54 c:/program files/microchip/xc32/v3.01/bin/bin/../../lib/gcc/pic32c/8.3.1/thumb/v6-m/nofp\libgcc.a(_fixunsdfsi.o)
 .comment       0x00000053       0x54 c:/program files/microchip/xc32/v3.01/bin/bin/../../lib/gcc/pic32c/8.3.1/thumb/v6-m/nofp\libgcc.a(eqsf2.o)
 .comment       0x00000053       0x54 c:/program files/microchip/xc32/v3.01/bin/bin/../../lib/gcc/pic32c/8.3.1/thumb/v6-m/nofp\libgcc.a(gesf2.o)
 .comment       0x00000053       0x54 c:/program files/microchip/xc32/v3.01/bin/bin/../../lib/gcc/pic32c/8.3.1/thumb/v6-m/nofp\libgcc.a(lesf2.o)
 .comment       0x00000053       0x54 c:/program files/microchip/xc32/v3.01/bin/bin/../../lib/gcc/pic32c/8.3.1/thumb/v6-m/nofp\libgcc.a(fixdfsi.o)
 .comment       0x00000053       0x54 c:/program files/microchip/xc32/v3.01/bin/bin/../../lib/gcc/pic32c/8.3.1/thumb/v6-m/nofp\libgcc.a(eqdf2.o)
 .comment       0x00000053       0x54 c:/program files/microchip/xc32/v3.01/bin/bin/../../lib/gcc/pic32c/8.3.1/thumb/v6-m/nofp\libgcc.a(gedf2.o)
 .comment       0x00000053       0x54 c:/program files/microchip/xc32/v3.01/bin/bin/../../lib/gcc/pic32c/8.3.1/thumb/v6-m/nofp\libgcc.a(ledf2.o)
 .comment       0x00000053       0x54 c:/program files/microchip/xc32/v3.01/bin/bin/../../lib/gcc/pic32c/8.3.1/../../../../pic32c/lib/thumb/v6-m/nofp\libc_nano.a(lib_a-init.o)

.debug_info     0x00000000    0x4e7a4
 .debug_info    0x00000000     0x4706 build/default/production/_ext/1824788055/radio_driver_hal.o
 .debug_info    0x00004706     0x27dc build/default/production/_ext/1824788055/sleep.o
 .debug_info    0x00006ee2     0x2934 build/default/production/_ext/1824788055/sleep_timer.o
 .debug_info    0x00009816     0x2ec6 build/default/production/_ext/1824788055/sys.o
 .debug_info    0x0000c6dc     0x3072 build/default/production/_ext/1824796116/pmm.o
 .debug_info    0x0000f74e     0x454b build/default/production/_ext/282161921/sw_timer.o
 .debug_info    0x00013c99      0x537 build/default/production/_ext/1824799377/system_task_manager.o
 .debug_info    0x000141d0     0x339a build/default/production/_ext/22805713/radio_driver_sx1276.o
 .debug_info    0x0001756a     0x3739 build/default/production/_ext/1824799587/radio_get_set.o
 .debug_info    0x0001aca3     0x2cc7 build/default/production/_ext/1824799587/radio_interface.o
 .debug_info    0x0001d96a     0x3113 build/default/production/_ext/1824799587/radio_lbt.o
 .debug_info    0x00020a7d      0x616 build/default/production/_ext/1824799587/radio_task_manager.o
 .debug_info    0x00021093     0x53a3 build/default/production/_ext/1824799587/radio_transaction.o
 .debug_info    0x00026436      0xcb1 build/default/production/_ext/60163342/plib_adc.o
 .debug_info    0x000270e7      0xb5a build/default/production/_ext/1984496892/plib_clock.o
 .debug_info    0x00027c41      0x73f build/default/production/_ext/60167341/plib_eic.o
 .debug_info    0x00028380      0x304 build/default/production/_ext/1986646378/plib_evsys.o
 .debug_info    0x00028684      0xaa8 build/default/production/_ext/1865468468/plib_nvic.o
 .debug_info    0x0002912c     0x1501 build/default/production/_ext/1593096446/plib_nvmctrl.o
 .debug_info    0x0002a62d      0x625 build/default/production/_ext/829342769/plib_pm.o
 .debug_info    0x0002ac52      0xc8d build/default/production/_ext/1865521619/plib_port.o
 .debug_info    0x0002b8df      0x5ba build/default/production/_ext/1865585090/plib_rstc.o
 .debug_info    0x0002be99     0x1795 build/default/production/_ext/60180175/plib_rtc_timer.o
 .debug_info    0x0002d62e     0x120f build/default/production/_ext/17022449/plib_sercom4_spi_master.o
 .debug_info    0x0002e83d      0x5e8 build/default/production/_ext/1865616679/plib_supc.o
 .debug_info    0x0002ee25      0x68e build/default/production/_ext/1827571544/plib_systick.o
 .debug_info    0x0002f4b3      0xd0c build/default/production/_ext/829342655/plib_tc0.o
 .debug_info    0x000301bf      0x9ec build/default/production/_ext/1881668453/sys_int.o
 .debug_info    0x00030bab     0x273e build/default/production/_ext/1171490990/exceptions.o
 .debug_info    0x000332e9     0x311e build/default/production/_ext/1171490990/interrupts.o
 .debug_info    0x00036407      0x49b build/default/production/_ext/1171490990/startup_xc32.o
 .debug_info    0x000368a2     0x2a98 build/default/production/_ext/1171490990/initialization.o
 .debug_info    0x0003933a     0x273f build/default/production/_ext/1530445869/tasks.o
 .debug_info    0x0003ba79     0x3bd0 build/default/production/_ext/1530445869/app.o
 .debug_info    0x0003f649     0x2733 build/default/production/_ext/1360937237/main.o
 .debug_info    0x00041d7c      0x2c3 c:/program files/microchip/xc32/v3.01/bin/bin/../../lib/gcc/pic32c/8.3.1/../../../../pic32c/lib/thumb/v6-m/nofp\libpic32c.a(data_init.o)
 .debug_info    0x0004203f       0x26 c:/program files/microchip/xc32/v3.01/bin/bin/../../lib/gcc/pic32c/8.3.1/thumb/v6-m/nofp\libgcc.a(_udivsi3.o)
 .debug_info    0x00042065       0x26 c:/program files/microchip/xc32/v3.01/bin/bin/../../lib/gcc/pic32c/8.3.1/thumb/v6-m/nofp\libgcc.a(_divsi3.o)
 .debug_info    0x0004208b       0x26 c:/program files/microchip/xc32/v3.01/bin/bin/../../lib/gcc/pic32c/8.3.1/thumb/v6-m/nofp\libgcc.a(_dvmd_tls.o)
 .debug_info    0x000420b1       0x26 c:/program files/microchip/xc32/v3.01/bin/bin/../../lib/gcc/pic32c/8.3.1/thumb/v6-m/nofp\libgcc.a(_aeabi_uldivmod.o)
 .debug_info    0x000420d7     0x1b5e c:/program files/microchip/xc32/v3.01/bin/bin/../../lib/gcc/pic32c/8.3.1/thumb/v6-m/nofp\libgcc.a(_fixunssfsi.o)
 .debug_info    0x00043c35     0x1bb5 c:/program files/microchip/xc32/v3.01/bin/bin/../../lib/gcc/pic32c/8.3.1/thumb/v6-m/nofp\libgcc.a(_fixunssfdi.o)
 .debug_info    0x000457ea     0x1c12 c:/program files/microchip/xc32/v3.01/bin/bin/../../lib/gcc/pic32c/8.3.1/thumb/v6-m/nofp\libgcc.a(_udivmoddi4.o)
 .debug_info    0x000473fc      0x6e2 c:/program files/microchip/xc32/v3.01/bin/bin/../../lib/gcc/pic32c/8.3.1/thumb/v6-m/nofp\libgcc.a(mulsf3.o)
 .debug_info    0x00047ade      0x63e c:/program files/microchip/xc32/v3.01/bin/bin/../../lib/gcc/pic32c/8.3.1/thumb/v6-m/nofp\libgcc.a(subsf3.o)
 .debug_info    0x0004811c      0x441 c:/program files/microchip/xc32/v3.01/bin/bin/../../lib/gcc/pic32c/8.3.1/thumb/v6-m/nofp\libgcc.a(fixsfsi.o)
 .debug_info    0x0004855d      0x515 c:/program files/microchip/xc32/v3.01/bin/bin/../../lib/gcc/pic32c/8.3.1/thumb/v6-m/nofp\libgcc.a(floatunsisf.o)
 .debug_info    0x00048a72      0xc00 c:/program files/microchip/xc32/v3.01/bin/bin/../../lib/gcc/pic32c/8.3.1/thumb/v6-m/nofp\libgcc.a(muldf3.o)
 .debug_info    0x00049672      0x90d c:/program files/microchip/xc32/v3.01/bin/bin/../../lib/gcc/pic32c/8.3.1/thumb/v6-m/nofp\libgcc.a(subdf3.o)
 .debug_info    0x00049f7f      0x5b1 c:/program files/microchip/xc32/v3.01/bin/bin/../../lib/gcc/pic32c/8.3.1/thumb/v6-m/nofp\libgcc.a(floatunsidf.o)
 .debug_info    0x0004a530      0x531 c:/program files/microchip/xc32/v3.01/bin/bin/../../lib/gcc/pic32c/8.3.1/thumb/v6-m/nofp\libgcc.a(extendsfdf2.o)
 .debug_info    0x0004aa61       0x26 c:/program files/microchip/xc32/v3.01/bin/bin/../../lib/gcc/pic32c/8.3.1/thumb/v6-m/nofp\libgcc.a(_arm_cmpsf2.o)
 .debug_info    0x0004aa87       0x26 c:/program files/microchip/xc32/v3.01/bin/bin/../../lib/gcc/pic32c/8.3.1/thumb/v6-m/nofp\libgcc.a(_clzsi2.o)
 .debug_info    0x0004aaad       0x26 c:/program files/microchip/xc32/v3.01/bin/bin/../../lib/gcc/pic32c/8.3.1/thumb/v6-m/nofp\libgcc.a(_clzdi2.o)
 .debug_info    0x0004aad3     0x1b5e c:/program files/microchip/xc32/v3.01/bin/bin/../../lib/gcc/pic32c/8.3.1/thumb/v6-m/nofp\libgcc.a(_fixunsdfsi.o)
 .debug_info    0x0004c631      0x491 c:/program files/microchip/xc32/v3.01/bin/bin/../../lib/gcc/pic32c/8.3.1/thumb/v6-m/nofp\libgcc.a(eqsf2.o)
 .debug_info    0x0004cac2      0x4c3 c:/program files/microchip/xc32/v3.01/bin/bin/../../lib/gcc/pic32c/8.3.1/thumb/v6-m/nofp\libgcc.a(gesf2.o)
 .debug_info    0x0004cf85      0x4c3 c:/program files/microchip/xc32/v3.01/bin/bin/../../lib/gcc/pic32c/8.3.1/thumb/v6-m/nofp\libgcc.a(lesf2.o)
 .debug_info    0x0004d448      0x462 c:/program files/microchip/xc32/v3.01/bin/bin/../../lib/gcc/pic32c/8.3.1/thumb/v6-m/nofp\libgcc.a(fixdfsi.o)
 .debug_info    0x0004d8aa       0x26 c:/program files/microchip/xc32/v3.01/bin/bin/../../lib/gcc/pic32c/8.3.1/thumb/v6-m/nofp\libgcc.a(_arm_cmpdf2.o)
 .debug_info    0x0004d8d0      0x4ca c:/program files/microchip/xc32/v3.01/bin/bin/../../lib/gcc/pic32c/8.3.1/thumb/v6-m/nofp\libgcc.a(eqdf2.o)
 .debug_info    0x0004dd9a      0x505 c:/program files/microchip/xc32/v3.01/bin/bin/../../lib/gcc/pic32c/8.3.1/thumb/v6-m/nofp\libgcc.a(gedf2.o)
 .debug_info    0x0004e29f      0x505 c:/program files/microchip/xc32/v3.01/bin/bin/../../lib/gcc/pic32c/8.3.1/thumb/v6-m/nofp\libgcc.a(ledf2.o)

.debug_abbrev   0x00000000     0x6edf
 .debug_abbrev  0x00000000      0x4ab build/default/production/_ext/1824788055/radio_driver_hal.o
 .debug_abbrev  0x000004ab      0x277 build/default/production/_ext/1824788055/sleep.o
 .debug_abbrev  0x00000722      0x2b9 build/default/production/_ext/1824788055/sleep_timer.o
 .debug_abbrev  0x000009db      0x324 build/default/production/_ext/1824788055/sys.o
 .debug_abbrev  0x00000cff      0x325 build/default/production/_ext/1824796116/pmm.o
 .debug_abbrev  0x00001024      0x532 build/default/production/_ext/282161921/sw_timer.o
 .debug_abbrev  0x00001556      0x11c build/default/production/_ext/1824799377/system_task_manager.o
 .debug_abbrev  0x00001672      0x36d build/default/production/_ext/22805713/radio_driver_sx1276.o
 .debug_abbrev  0x000019df      0x443 build/default/production/_ext/1824799587/radio_get_set.o
 .debug_abbrev  0x00001e22      0x344 build/default/production/_ext/1824799587/radio_interface.o
 .debug_abbrev  0x00002166      0x343 build/default/production/_ext/1824799587/radio_lbt.o
 .debug_abbrev  0x000024a9      0x148 build/default/production/_ext/1824799587/radio_task_manager.o
 .debug_abbrev  0x000025f1      0x624 build/default/production/_ext/1824799587/radio_transaction.o
 .debug_abbrev  0x00002c15      0x17b build/default/production/_ext/60163342/plib_adc.o
 .debug_abbrev  0x00002d90      0x160 build/default/production/_ext/1984496892/plib_clock.o
 .debug_abbrev  0x00002ef0      0x1ae build/default/production/_ext/60167341/plib_eic.o
 .debug_abbrev  0x0000309e       0x3b build/default/production/_ext/1986646378/plib_evsys.o
 .debug_abbrev  0x000030d9      0x1e1 build/default/production/_ext/1865468468/plib_nvic.o
 .debug_abbrev  0x000032ba      0x2a7 build/default/production/_ext/1593096446/plib_nvmctrl.o
 .debug_abbrev  0x00003561       0xec build/default/production/_ext/829342769/plib_pm.o
 .debug_abbrev  0x0000364d      0x1d6 build/default/production/_ext/1865521619/plib_port.o
 .debug_abbrev  0x00003823       0xa6 build/default/production/_ext/1865585090/plib_rstc.o
 .debug_abbrev  0x000038c9      0x255 build/default/production/_ext/60180175/plib_rtc_timer.o
 .debug_abbrev  0x00003b1e      0x233 build/default/production/_ext/17022449/plib_sercom4_spi_master.o
 .debug_abbrev  0x00003d51      0x112 build/default/production/_ext/1865616679/plib_supc.o
 .debug_abbrev  0x00003e63      0x117 build/default/production/_ext/1827571544/plib_systick.o
 .debug_abbrev  0x00003f7a      0x218 build/default/production/_ext/829342655/plib_tc0.o
 .debug_abbrev  0x00004192      0x246 build/default/production/_ext/1881668453/sys_int.o
 .debug_abbrev  0x000043d8      0x245 build/default/production/_ext/1171490990/exceptions.o
 .debug_abbrev  0x0000461d      0x252 build/default/production/_ext/1171490990/interrupts.o
 .debug_abbrev  0x0000486f      0x11f build/default/production/_ext/1171490990/startup_xc32.o
 .debug_abbrev  0x0000498e      0x28b build/default/production/_ext/1171490990/initialization.o
 .debug_abbrev  0x00004c19      0x263 build/default/production/_ext/1530445869/tasks.o
 .debug_abbrev  0x00004e7c      0x440 build/default/production/_ext/1530445869/app.o
 .debug_abbrev  0x000052bc      0x27e build/default/production/_ext/1360937237/main.o
 .debug_abbrev  0x0000553a       0x2e c:/program files/microchip/xc32/v3.01/bin/bin/../../lib/gcc/pic32c/8.3.1/../../../../pic32c/lib/thumb/v6-m/nofp\libpic32c.a(data_init.o)
 .debug_abbrev  0x00005568       0x14 c:/program files/microchip/xc32/v3.01/bin/bin/../../lib/gcc/pic32c/8.3.1/thumb/v6-m/nofp\libgcc.a(_udivsi3.o)
 .debug_abbrev  0x0000557c       0x14 c:/program files/microchip/xc32/v3.01/bin/bin/../../lib/gcc/pic32c/8.3.1/thumb/v6-m/nofp\libgcc.a(_divsi3.o)
 .debug_abbrev  0x00005590       0x14 c:/program files/microchip/xc32/v3.01/bin/bin/../../lib/gcc/pic32c/8.3.1/thumb/v6-m/nofp\libgcc.a(_dvmd_tls.o)
 .debug_abbrev  0x000055a4       0x14 c:/program files/microchip/xc32/v3.01/bin/bin/../../lib/gcc/pic32c/8.3.1/thumb/v6-m/nofp\libgcc.a(_aeabi_uldivmod.o)
 .debug_abbrev  0x000055b8      0x130 c:/program files/microchip/xc32/v3.01/bin/bin/../../lib/gcc/pic32c/8.3.1/thumb/v6-m/nofp\libgcc.a(_fixunssfsi.o)
 .debug_abbrev  0x000056e8      0x144 c:/program files/microchip/xc32/v3.01/bin/bin/../../lib/gcc/pic32c/8.3.1/thumb/v6-m/nofp\libgcc.a(_fixunssfdi.o)
 .debug_abbrev  0x0000582c      0x157 c:/program files/microchip/xc32/v3.01/bin/bin/../../lib/gcc/pic32c/8.3.1/thumb/v6-m/nofp\libgcc.a(_udivmoddi4.o)
 .debug_abbrev  0x00005983      0x161 c:/program files/microchip/xc32/v3.01/bin/bin/../../lib/gcc/pic32c/8.3.1/thumb/v6-m/nofp\libgcc.a(mulsf3.o)
 .debug_abbrev  0x00005ae4      0x172 c:/program files/microchip/xc32/v3.01/bin/bin/../../lib/gcc/pic32c/8.3.1/thumb/v6-m/nofp\libgcc.a(subsf3.o)
 .debug_abbrev  0x00005c56      0x153 c:/program files/microchip/xc32/v3.01/bin/bin/../../lib/gcc/pic32c/8.3.1/thumb/v6-m/nofp\libgcc.a(fixsfsi.o)
 .debug_abbrev  0x00005da9      0x14d c:/program files/microchip/xc32/v3.01/bin/bin/../../lib/gcc/pic32c/8.3.1/thumb/v6-m/nofp\libgcc.a(floatunsisf.o)
 .debug_abbrev  0x00005ef6      0x16f c:/program files/microchip/xc32/v3.01/bin/bin/../../lib/gcc/pic32c/8.3.1/thumb/v6-m/nofp\libgcc.a(muldf3.o)
 .debug_abbrev  0x00006065      0x177 c:/program files/microchip/xc32/v3.01/bin/bin/../../lib/gcc/pic32c/8.3.1/thumb/v6-m/nofp\libgcc.a(subdf3.o)
 .debug_abbrev  0x000061dc      0x136 c:/program files/microchip/xc32/v3.01/bin/bin/../../lib/gcc/pic32c/8.3.1/thumb/v6-m/nofp\libgcc.a(floatunsidf.o)
 .debug_abbrev  0x00006312      0x127 c:/program files/microchip/xc32/v3.01/bin/bin/../../lib/gcc/pic32c/8.3.1/thumb/v6-m/nofp\libgcc.a(extendsfdf2.o)
 .debug_abbrev  0x00006439       0x14 c:/program files/microchip/xc32/v3.01/bin/bin/../../lib/gcc/pic32c/8.3.1/thumb/v6-m/nofp\libgcc.a(_arm_cmpsf2.o)
 .debug_abbrev  0x0000644d       0x14 c:/program files/microchip/xc32/v3.01/bin/bin/../../lib/gcc/pic32c/8.3.1/thumb/v6-m/nofp\libgcc.a(_clzsi2.o)
 .debug_abbrev  0x00006461       0x14 c:/program files/microchip/xc32/v3.01/bin/bin/../../lib/gcc/pic32c/8.3.1/thumb/v6-m/nofp\libgcc.a(_clzdi2.o)
 .debug_abbrev  0x00006475      0x130 c:/program files/microchip/xc32/v3.01/bin/bin/../../lib/gcc/pic32c/8.3.1/thumb/v6-m/nofp\libgcc.a(_fixunsdfsi.o)
 .debug_abbrev  0x000065a5      0x14a c:/program files/microchip/xc32/v3.01/bin/bin/../../lib/gcc/pic32c/8.3.1/thumb/v6-m/nofp\libgcc.a(eqsf2.o)
 .debug_abbrev  0x000066ef      0x14c c:/program files/microchip/xc32/v3.01/bin/bin/../../lib/gcc/pic32c/8.3.1/thumb/v6-m/nofp\libgcc.a(gesf2.o)
 .debug_abbrev  0x0000683b      0x14c c:/program files/microchip/xc32/v3.01/bin/bin/../../lib/gcc/pic32c/8.3.1/thumb/v6-m/nofp\libgcc.a(lesf2.o)
 .debug_abbrev  0x00006987      0x151 c:/program files/microchip/xc32/v3.01/bin/bin/../../lib/gcc/pic32c/8.3.1/thumb/v6-m/nofp\libgcc.a(fixdfsi.o)
 .debug_abbrev  0x00006ad8       0x14 c:/program files/microchip/xc32/v3.01/bin/bin/../../lib/gcc/pic32c/8.3.1/thumb/v6-m/nofp\libgcc.a(_arm_cmpdf2.o)
 .debug_abbrev  0x00006aec      0x15b c:/program files/microchip/xc32/v3.01/bin/bin/../../lib/gcc/pic32c/8.3.1/thumb/v6-m/nofp\libgcc.a(eqdf2.o)
 .debug_abbrev  0x00006c47      0x14c c:/program files/microchip/xc32/v3.01/bin/bin/../../lib/gcc/pic32c/8.3.1/thumb/v6-m/nofp\libgcc.a(gedf2.o)
 .debug_abbrev  0x00006d93      0x14c c:/program files/microchip/xc32/v3.01/bin/bin/../../lib/gcc/pic32c/8.3.1/thumb/v6-m/nofp\libgcc.a(ledf2.o)

.debug_loc      0x00000000     0xa73a
 .debug_loc     0x00000000      0x5b8 build/default/production/_ext/1824788055/radio_driver_hal.o
 .debug_loc     0x000005b8       0x7f build/default/production/_ext/1824788055/sleep.o
 .debug_loc     0x00000637       0xe4 build/default/production/_ext/1824788055/sleep_timer.o
 .debug_loc     0x0000071b      0x171 build/default/production/_ext/1824788055/sys.o
 .debug_loc     0x0000088c      0x2ff build/default/production/_ext/1824796116/pmm.o
 .debug_loc     0x00000b8b      0xa58 build/default/production/_ext/282161921/sw_timer.o
 .debug_loc     0x000015e3       0xa5 build/default/production/_ext/1824799377/system_task_manager.o
 .debug_loc     0x00001688      0x3fc build/default/production/_ext/22805713/radio_driver_sx1276.o
 .debug_loc     0x00001a84      0xbb1 build/default/production/_ext/1824799587/radio_get_set.o
 .debug_loc     0x00002635      0x238 build/default/production/_ext/1824799587/radio_interface.o
 .debug_loc     0x0000286d       0xc6 build/default/production/_ext/1824799587/radio_lbt.o
 .debug_loc     0x00002933       0xea build/default/production/_ext/1824799587/radio_task_manager.o
 .debug_loc     0x00002a1d      0x878 build/default/production/_ext/1824799587/radio_transaction.o
 .debug_loc     0x00003295      0x12a build/default/production/_ext/60163342/plib_adc.o
 .debug_loc     0x000033bf       0x55 build/default/production/_ext/1984496892/plib_clock.o
 .debug_loc     0x00003414      0x115 build/default/production/_ext/60167341/plib_eic.o
 .debug_loc     0x00003529       0x9c build/default/production/_ext/1865468468/plib_nvic.o
 .debug_loc     0x000035c5      0x3a4 build/default/production/_ext/1593096446/plib_nvmctrl.o
 .debug_loc     0x00003969       0x63 build/default/production/_ext/829342769/plib_pm.o
 .debug_loc     0x000039cc      0x226 build/default/production/_ext/1865521619/plib_port.o
 .debug_loc     0x00003bf2       0x6a build/default/production/_ext/60180175/plib_rtc_timer.o
 .debug_loc     0x00003c5c      0x665 build/default/production/_ext/17022449/plib_sercom4_spi_master.o
 .debug_loc     0x000042c1       0x83 build/default/production/_ext/1865616679/plib_supc.o
 .debug_loc     0x00004344      0x2d3 build/default/production/_ext/1827571544/plib_systick.o
 .debug_loc     0x00004617       0xe8 build/default/production/_ext/829342655/plib_tc0.o
 .debug_loc     0x000046ff      0x17d build/default/production/_ext/1881668453/sys_int.o
 .debug_loc     0x0000487c       0x20 build/default/production/_ext/1171490990/startup_xc32.o
 .debug_loc     0x0000489c       0x45 build/default/production/_ext/1171490990/initialization.o
 .debug_loc     0x000048e1       0x20 build/default/production/_ext/1530445869/tasks.o
 .debug_loc     0x00004901      0x226 build/default/production/_ext/1530445869/app.o
 .debug_loc     0x00004b27       0x20 build/default/production/_ext/1360937237/main.o
 .debug_loc     0x00004b47       0x14 c:/program files/microchip/xc32/v3.01/bin/bin/../../lib/gcc/pic32c/8.3.1/../../../../pic32c/lib/thumb/v6-m/nofp\libpic32c.a(data_init.o)
 .debug_loc     0x00004b5b       0x62 c:/program files/microchip/xc32/v3.01/bin/bin/../../lib/gcc/pic32c/8.3.1/thumb/v6-m/nofp\libgcc.a(_fixunssfsi.o)
 .debug_loc     0x00004bbd       0xed c:/program files/microchip/xc32/v3.01/bin/bin/../../lib/gcc/pic32c/8.3.1/thumb/v6-m/nofp\libgcc.a(_fixunssfdi.o)
 .debug_loc     0x00004caa      0x41c c:/program files/microchip/xc32/v3.01/bin/bin/../../lib/gcc/pic32c/8.3.1/thumb/v6-m/nofp\libgcc.a(_udivmoddi4.o)
 .debug_loc     0x000050c6      0x8ef c:/program files/microchip/xc32/v3.01/bin/bin/../../lib/gcc/pic32c/8.3.1/thumb/v6-m/nofp\libgcc.a(mulsf3.o)
 .debug_loc     0x000059b5      0x8e2 c:/program files/microchip/xc32/v3.01/bin/bin/../../lib/gcc/pic32c/8.3.1/thumb/v6-m/nofp\libgcc.a(subsf3.o)
 .debug_loc     0x00006297       0xf4 c:/program files/microchip/xc32/v3.01/bin/bin/../../lib/gcc/pic32c/8.3.1/thumb/v6-m/nofp\libgcc.a(fixsfsi.o)
 .debug_loc     0x0000638b      0x228 c:/program files/microchip/xc32/v3.01/bin/bin/../../lib/gcc/pic32c/8.3.1/thumb/v6-m/nofp\libgcc.a(floatunsisf.o)
 .debug_loc     0x000065b3     0x11a6 c:/program files/microchip/xc32/v3.01/bin/bin/../../lib/gcc/pic32c/8.3.1/thumb/v6-m/nofp\libgcc.a(muldf3.o)
 .debug_loc     0x00007759     0x192c c:/program files/microchip/xc32/v3.01/bin/bin/../../lib/gcc/pic32c/8.3.1/thumb/v6-m/nofp\libgcc.a(subdf3.o)
 .debug_loc     0x00009085      0x2ca c:/program files/microchip/xc32/v3.01/bin/bin/../../lib/gcc/pic32c/8.3.1/thumb/v6-m/nofp\libgcc.a(floatunsidf.o)
 .debug_loc     0x0000934f      0x26c c:/program files/microchip/xc32/v3.01/bin/bin/../../lib/gcc/pic32c/8.3.1/thumb/v6-m/nofp\libgcc.a(extendsfdf2.o)
 .debug_loc     0x000095bb       0x4d c:/program files/microchip/xc32/v3.01/bin/bin/../../lib/gcc/pic32c/8.3.1/thumb/v6-m/nofp\libgcc.a(_fixunsdfsi.o)
 .debug_loc     0x00009608      0x166 c:/program files/microchip/xc32/v3.01/bin/bin/../../lib/gcc/pic32c/8.3.1/thumb/v6-m/nofp\libgcc.a(eqsf2.o)
 .debug_loc     0x0000976e      0x27d c:/program files/microchip/xc32/v3.01/bin/bin/../../lib/gcc/pic32c/8.3.1/thumb/v6-m/nofp\libgcc.a(gesf2.o)
 .debug_loc     0x000099eb      0x272 c:/program files/microchip/xc32/v3.01/bin/bin/../../lib/gcc/pic32c/8.3.1/thumb/v6-m/nofp\libgcc.a(lesf2.o)
 .debug_loc     0x00009c5d      0x1a8 c:/program files/microchip/xc32/v3.01/bin/bin/../../lib/gcc/pic32c/8.3.1/thumb/v6-m/nofp\libgcc.a(fixdfsi.o)
 .debug_loc     0x00009e05      0x176 c:/program files/microchip/xc32/v3.01/bin/bin/../../lib/gcc/pic32c/8.3.1/thumb/v6-m/nofp\libgcc.a(eqdf2.o)
 .debug_loc     0x00009f7b      0x3e0 c:/program files/microchip/xc32/v3.01/bin/bin/../../lib/gcc/pic32c/8.3.1/thumb/v6-m/nofp\libgcc.a(gedf2.o)
 .debug_loc     0x0000a35b      0x3df c:/program files/microchip/xc32/v3.01/bin/bin/../../lib/gcc/pic32c/8.3.1/thumb/v6-m/nofp\libgcc.a(ledf2.o)

.debug_aranges  0x00000000      0xe88
 .debug_aranges
                0x00000000      0x108 build/default/production/_ext/1824788055/radio_driver_hal.o
 .debug_aranges
                0x00000108       0x20 build/default/production/_ext/1824788055/sleep.o
 .debug_aranges
                0x00000128       0x38 build/default/production/_ext/1824788055/sleep_timer.o
 .debug_aranges
                0x00000160       0x48 build/default/production/_ext/1824788055/sys.o
 .debug_aranges
                0x000001a8       0x28 build/default/production/_ext/1824796116/pmm.o
 .debug_aranges
                0x000001d0       0xb8 build/default/production/_ext/282161921/sw_timer.o
 .debug_aranges
                0x00000288       0x30 build/default/production/_ext/1824799377/system_task_manager.o
 .debug_aranges
                0x000002b8       0x40 build/default/production/_ext/22805713/radio_driver_sx1276.o
 .debug_aranges
                0x000002f8       0x40 build/default/production/_ext/1824799587/radio_get_set.o
 .debug_aranges
                0x00000338       0x58 build/default/production/_ext/1824799587/radio_interface.o
 .debug_aranges
                0x00000390       0x30 build/default/production/_ext/1824799587/radio_lbt.o
 .debug_aranges
                0x000003c0       0x30 build/default/production/_ext/1824799587/radio_task_manager.o
 .debug_aranges
                0x000003f0      0x108 build/default/production/_ext/1824799587/radio_transaction.o
 .debug_aranges
                0x000004f8       0x80 build/default/production/_ext/60163342/plib_adc.o
 .debug_aranges
                0x00000578       0x20 build/default/production/_ext/1984496892/plib_clock.o
 .debug_aranges
                0x00000598       0x40 build/default/production/_ext/60167341/plib_eic.o
 .debug_aranges
                0x000005d8       0x20 build/default/production/_ext/1986646378/plib_evsys.o
 .debug_aranges
                0x000005f8       0x38 build/default/production/_ext/1865468468/plib_nvic.o
 .debug_aranges
                0x00000630       0x78 build/default/production/_ext/1593096446/plib_nvmctrl.o
 .debug_aranges
                0x000006a8       0x58 build/default/production/_ext/829342769/plib_pm.o
 .debug_aranges
                0x00000700       0x70 build/default/production/_ext/1865521619/plib_port.o
 .debug_aranges
                0x00000770       0x38 build/default/production/_ext/1865585090/plib_rstc.o
 .debug_aranges
                0x000007a8       0x78 build/default/production/_ext/60180175/plib_rtc_timer.o
 .debug_aranges
                0x00000820       0x48 build/default/production/_ext/17022449/plib_sercom4_spi_master.o
 .debug_aranges
                0x00000868       0x40 build/default/production/_ext/1865616679/plib_supc.o
 .debug_aranges
                0x000008a8       0x70 build/default/production/_ext/1827571544/plib_systick.o
 .debug_aranges
                0x00000918       0x78 build/default/production/_ext/829342655/plib_tc0.o
 .debug_aranges
                0x00000990       0x40 build/default/production/_ext/1881668453/sys_int.o
 .debug_aranges
                0x000009d0       0x28 build/default/production/_ext/1171490990/exceptions.o
 .debug_aranges
                0x000009f8       0x20 build/default/production/_ext/1171490990/interrupts.o
 .debug_aranges
                0x00000a18       0x28 build/default/production/_ext/1171490990/startup_xc32.o
 .debug_aranges
                0x00000a40       0x20 build/default/production/_ext/1171490990/initialization.o
 .debug_aranges
                0x00000a60       0x20 build/default/production/_ext/1530445869/tasks.o
 .debug_aranges
                0x00000a80       0x68 build/default/production/_ext/1530445869/app.o
 .debug_aranges
                0x00000ae8       0x20 build/default/production/_ext/1360937237/main.o
 .debug_aranges
                0x00000b08       0x20 c:/program files/microchip/xc32/v3.01/bin/bin/../../lib/gcc/pic32c/8.3.1/../../../../pic32c/lib/thumb/v6-m/nofp\libpic32c.a(data_init.o)
 .debug_aranges
                0x00000b28       0x20 c:/program files/microchip/xc32/v3.01/bin/bin/../../lib/gcc/pic32c/8.3.1/thumb/v6-m/nofp\libgcc.a(_udivsi3.o)
 .debug_aranges
                0x00000b48       0x20 c:/program files/microchip/xc32/v3.01/bin/bin/../../lib/gcc/pic32c/8.3.1/thumb/v6-m/nofp\libgcc.a(_divsi3.o)
 .debug_aranges
                0x00000b68       0x20 c:/program files/microchip/xc32/v3.01/bin/bin/../../lib/gcc/pic32c/8.3.1/thumb/v6-m/nofp\libgcc.a(_dvmd_tls.o)
 .debug_aranges
                0x00000b88       0x20 c:/program files/microchip/xc32/v3.01/bin/bin/../../lib/gcc/pic32c/8.3.1/thumb/v6-m/nofp\libgcc.a(_aeabi_uldivmod.o)
 .debug_aranges
                0x00000ba8       0x20 c:/program files/microchip/xc32/v3.01/bin/bin/../../lib/gcc/pic32c/8.3.1/thumb/v6-m/nofp\libgcc.a(_fixunssfsi.o)
 .debug_aranges
                0x00000bc8       0x20 c:/program files/microchip/xc32/v3.01/bin/bin/../../lib/gcc/pic32c/8.3.1/thumb/v6-m/nofp\libgcc.a(_fixunssfdi.o)
 .debug_aranges
                0x00000be8       0x20 c:/program files/microchip/xc32/v3.01/bin/bin/../../lib/gcc/pic32c/8.3.1/thumb/v6-m/nofp\libgcc.a(_udivmoddi4.o)
 .debug_aranges
                0x00000c08       0x20 c:/program files/microchip/xc32/v3.01/bin/bin/../../lib/gcc/pic32c/8.3.1/thumb/v6-m/nofp\libgcc.a(mulsf3.o)
 .debug_aranges
                0x00000c28       0x20 c:/program files/microchip/xc32/v3.01/bin/bin/../../lib/gcc/pic32c/8.3.1/thumb/v6-m/nofp\libgcc.a(subsf3.o)
 .debug_aranges
                0x00000c48       0x20 c:/program files/microchip/xc32/v3.01/bin/bin/../../lib/gcc/pic32c/8.3.1/thumb/v6-m/nofp\libgcc.a(fixsfsi.o)
 .debug_aranges
                0x00000c68       0x20 c:/program files/microchip/xc32/v3.01/bin/bin/../../lib/gcc/pic32c/8.3.1/thumb/v6-m/nofp\libgcc.a(floatunsisf.o)
 .debug_aranges
                0x00000c88       0x20 c:/program files/microchip/xc32/v3.01/bin/bin/../../lib/gcc/pic32c/8.3.1/thumb/v6-m/nofp\libgcc.a(muldf3.o)
 .debug_aranges
                0x00000ca8       0x20 c:/program files/microchip/xc32/v3.01/bin/bin/../../lib/gcc/pic32c/8.3.1/thumb/v6-m/nofp\libgcc.a(subdf3.o)
 .debug_aranges
                0x00000cc8       0x20 c:/program files/microchip/xc32/v3.01/bin/bin/../../lib/gcc/pic32c/8.3.1/thumb/v6-m/nofp\libgcc.a(floatunsidf.o)
 .debug_aranges
                0x00000ce8       0x20 c:/program files/microchip/xc32/v3.01/bin/bin/../../lib/gcc/pic32c/8.3.1/thumb/v6-m/nofp\libgcc.a(extendsfdf2.o)
 .debug_aranges
                0x00000d08       0x20 c:/program files/microchip/xc32/v3.01/bin/bin/../../lib/gcc/pic32c/8.3.1/thumb/v6-m/nofp\libgcc.a(_arm_cmpsf2.o)
 .debug_aranges
                0x00000d28       0x20 c:/program files/microchip/xc32/v3.01/bin/bin/../../lib/gcc/pic32c/8.3.1/thumb/v6-m/nofp\libgcc.a(_clzsi2.o)
 .debug_aranges
                0x00000d48       0x20 c:/program files/microchip/xc32/v3.01/bin/bin/../../lib/gcc/pic32c/8.3.1/thumb/v6-m/nofp\libgcc.a(_clzdi2.o)
 .debug_aranges
                0x00000d68       0x20 c:/program files/microchip/xc32/v3.01/bin/bin/../../lib/gcc/pic32c/8.3.1/thumb/v6-m/nofp\libgcc.a(_fixunsdfsi.o)
 .debug_aranges
                0x00000d88       0x20 c:/program files/microchip/xc32/v3.01/bin/bin/../../lib/gcc/pic32c/8.3.1/thumb/v6-m/nofp\libgcc.a(eqsf2.o)
 .debug_aranges
                0x00000da8       0x20 c:/program files/microchip/xc32/v3.01/bin/bin/../../lib/gcc/pic32c/8.3.1/thumb/v6-m/nofp\libgcc.a(gesf2.o)
 .debug_aranges
                0x00000dc8       0x20 c:/program files/microchip/xc32/v3.01/bin/bin/../../lib/gcc/pic32c/8.3.1/thumb/v6-m/nofp\libgcc.a(lesf2.o)
 .debug_aranges
                0x00000de8       0x20 c:/program files/microchip/xc32/v3.01/bin/bin/../../lib/gcc/pic32c/8.3.1/thumb/v6-m/nofp\libgcc.a(fixdfsi.o)
 .debug_aranges
                0x00000e08       0x20 c:/program files/microchip/xc32/v3.01/bin/bin/../../lib/gcc/pic32c/8.3.1/thumb/v6-m/nofp\libgcc.a(_arm_cmpdf2.o)
 .debug_aranges
                0x00000e28       0x20 c:/program files/microchip/xc32/v3.01/bin/bin/../../lib/gcc/pic32c/8.3.1/thumb/v6-m/nofp\libgcc.a(eqdf2.o)
 .debug_aranges
                0x00000e48       0x20 c:/program files/microchip/xc32/v3.01/bin/bin/../../lib/gcc/pic32c/8.3.1/thumb/v6-m/nofp\libgcc.a(gedf2.o)
 .debug_aranges
                0x00000e68       0x20 c:/program files/microchip/xc32/v3.01/bin/bin/../../lib/gcc/pic32c/8.3.1/thumb/v6-m/nofp\libgcc.a(ledf2.o)

.debug_ranges   0x00000000     0x1498
 .debug_ranges  0x00000000      0x1b8 build/default/production/_ext/1824788055/radio_driver_hal.o
 .debug_ranges  0x000001b8       0x10 build/default/production/_ext/1824788055/sleep.o
 .debug_ranges  0x000001c8       0x28 build/default/production/_ext/1824788055/sleep_timer.o
 .debug_ranges  0x000001f0       0x68 build/default/production/_ext/1824788055/sys.o
 .debug_ranges  0x00000258       0x48 build/default/production/_ext/1824796116/pmm.o
 .debug_ranges  0x000002a0       0xd8 build/default/production/_ext/282161921/sw_timer.o
 .debug_ranges  0x00000378       0x40 build/default/production/_ext/1824799377/system_task_manager.o
 .debug_ranges  0x000003b8       0x30 build/default/production/_ext/22805713/radio_driver_sx1276.o
 .debug_ranges  0x000003e8      0x158 build/default/production/_ext/1824799587/radio_get_set.o
 .debug_ranges  0x00000540       0x48 build/default/production/_ext/1824799587/radio_interface.o
 .debug_ranges  0x00000588       0x20 build/default/production/_ext/1824799587/radio_lbt.o
 .debug_ranges  0x000005a8       0x38 build/default/production/_ext/1824799587/radio_task_manager.o
 .debug_ranges  0x000005e0      0x110 build/default/production/_ext/1824799587/radio_transaction.o
 .debug_ranges  0x000006f0       0x70 build/default/production/_ext/60163342/plib_adc.o
 .debug_ranges  0x00000760       0x10 build/default/production/_ext/1984496892/plib_clock.o
 .debug_ranges  0x00000770       0x30 build/default/production/_ext/60167341/plib_eic.o
 .debug_ranges  0x000007a0       0x10 build/default/production/_ext/1986646378/plib_evsys.o
 .debug_ranges  0x000007b0       0x28 build/default/production/_ext/1865468468/plib_nvic.o
 .debug_ranges  0x000007d8       0x68 build/default/production/_ext/1593096446/plib_nvmctrl.o
 .debug_ranges  0x00000840       0x48 build/default/production/_ext/829342769/plib_pm.o
 .debug_ranges  0x00000888       0x60 build/default/production/_ext/1865521619/plib_port.o
 .debug_ranges  0x000008e8       0x28 build/default/production/_ext/1865585090/plib_rstc.o
 .debug_ranges  0x00000910       0x68 build/default/production/_ext/60180175/plib_rtc_timer.o
 .debug_ranges  0x00000978       0x38 build/default/production/_ext/17022449/plib_sercom4_spi_master.o
 .debug_ranges  0x000009b0       0x30 build/default/production/_ext/1865616679/plib_supc.o
 .debug_ranges  0x000009e0       0x60 build/default/production/_ext/1827571544/plib_systick.o
 .debug_ranges  0x00000a40       0x68 build/default/production/_ext/829342655/plib_tc0.o
 .debug_ranges  0x00000aa8       0x48 build/default/production/_ext/1881668453/sys_int.o
 .debug_ranges  0x00000af0       0x18 build/default/production/_ext/1171490990/exceptions.o
 .debug_ranges  0x00000b08       0x10 build/default/production/_ext/1171490990/interrupts.o
 .debug_ranges  0x00000b18       0x18 build/default/production/_ext/1171490990/startup_xc32.o
 .debug_ranges  0x00000b30       0x10 build/default/production/_ext/1171490990/initialization.o
 .debug_ranges  0x00000b40       0x10 build/default/production/_ext/1530445869/tasks.o
 .debug_ranges  0x00000b50       0x58 build/default/production/_ext/1530445869/app.o
 .debug_ranges  0x00000ba8       0x10 build/default/production/_ext/1360937237/main.o
 .debug_ranges  0x00000bb8       0x10 c:/program files/microchip/xc32/v3.01/bin/bin/../../lib/gcc/pic32c/8.3.1/../../../../pic32c/lib/thumb/v6-m/nofp\libpic32c.a(data_init.o)
 .debug_ranges  0x00000bc8       0x58 c:/program files/microchip/xc32/v3.01/bin/bin/../../lib/gcc/pic32c/8.3.1/thumb/v6-m/nofp\libgcc.a(mulsf3.o)
 .debug_ranges  0x00000c20      0x198 c:/program files/microchip/xc32/v3.01/bin/bin/../../lib/gcc/pic32c/8.3.1/thumb/v6-m/nofp\libgcc.a(subsf3.o)
 .debug_ranges  0x00000db8       0x38 c:/program files/microchip/xc32/v3.01/bin/bin/../../lib/gcc/pic32c/8.3.1/thumb/v6-m/nofp\libgcc.a(floatunsisf.o)
 .debug_ranges  0x00000df0      0x1d0 c:/program files/microchip/xc32/v3.01/bin/bin/../../lib/gcc/pic32c/8.3.1/thumb/v6-m/nofp\libgcc.a(muldf3.o)
 .debug_ranges  0x00000fc0      0x238 c:/program files/microchip/xc32/v3.01/bin/bin/../../lib/gcc/pic32c/8.3.1/thumb/v6-m/nofp\libgcc.a(subdf3.o)
 .debug_ranges  0x000011f8       0x50 c:/program files/microchip/xc32/v3.01/bin/bin/../../lib/gcc/pic32c/8.3.1/thumb/v6-m/nofp\libgcc.a(floatunsidf.o)
 .debug_ranges  0x00001248       0x38 c:/program files/microchip/xc32/v3.01/bin/bin/../../lib/gcc/pic32c/8.3.1/thumb/v6-m/nofp\libgcc.a(extendsfdf2.o)
 .debug_ranges  0x00001280       0x30 c:/program files/microchip/xc32/v3.01/bin/bin/../../lib/gcc/pic32c/8.3.1/thumb/v6-m/nofp\libgcc.a(eqsf2.o)
 .debug_ranges  0x000012b0       0x58 c:/program files/microchip/xc32/v3.01/bin/bin/../../lib/gcc/pic32c/8.3.1/thumb/v6-m/nofp\libgcc.a(gesf2.o)
 .debug_ranges  0x00001308       0x58 c:/program files/microchip/xc32/v3.01/bin/bin/../../lib/gcc/pic32c/8.3.1/thumb/v6-m/nofp\libgcc.a(lesf2.o)
 .debug_ranges  0x00001360       0x18 c:/program files/microchip/xc32/v3.01/bin/bin/../../lib/gcc/pic32c/8.3.1/thumb/v6-m/nofp\libgcc.a(fixdfsi.o)
 .debug_ranges  0x00001378       0x48 c:/program files/microchip/xc32/v3.01/bin/bin/../../lib/gcc/pic32c/8.3.1/thumb/v6-m/nofp\libgcc.a(eqdf2.o)
 .debug_ranges  0x000013c0       0x70 c:/program files/microchip/xc32/v3.01/bin/bin/../../lib/gcc/pic32c/8.3.1/thumb/v6-m/nofp\libgcc.a(gedf2.o)
 .debug_ranges  0x00001430       0x68 c:/program files/microchip/xc32/v3.01/bin/bin/../../lib/gcc/pic32c/8.3.1/thumb/v6-m/nofp\libgcc.a(ledf2.o)

.debug_line     0x00000000     0xd150
 .debug_line    0x00000000      0x9f5 build/default/production/_ext/1824788055/radio_driver_hal.o
 .debug_line    0x000009f5      0x2ea build/default/production/_ext/1824788055/sleep.o
 .debug_line    0x00000cdf      0x32a build/default/production/_ext/1824788055/sleep_timer.o
 .debug_line    0x00001009      0x469 build/default/production/_ext/1824788055/sys.o
 .debug_line    0x00001472      0x4c5 build/default/production/_ext/1824796116/pmm.o
 .debug_line    0x00001937      0xa99 build/default/production/_ext/282161921/sw_timer.o
 .debug_line    0x000023d0      0x1ec build/default/production/_ext/1824799377/system_task_manager.o
 .debug_line    0x000025bc      0x4d8 build/default/production/_ext/22805713/radio_driver_sx1276.o
 .debug_line    0x00002a94      0xceb build/default/production/_ext/1824799587/radio_get_set.o
 .debug_line    0x0000377f      0x4c2 build/default/production/_ext/1824799587/radio_interface.o
 .debug_line    0x00003c41      0x465 build/default/production/_ext/1824799587/radio_lbt.o
 .debug_line    0x000040a6      0x220 build/default/production/_ext/1824799587/radio_task_manager.o
 .debug_line    0x000042c6     0x1353 build/default/production/_ext/1824799587/radio_transaction.o
 .debug_line    0x00005619      0x3b3 build/default/production/_ext/60163342/plib_adc.o
 .debug_line    0x000059cc      0x348 build/default/production/_ext/1984496892/plib_clock.o
 .debug_line    0x00005d14      0x2ee build/default/production/_ext/60167341/plib_eic.o
 .debug_line    0x00006002       0x66 build/default/production/_ext/1986646378/plib_evsys.o
 .debug_line    0x00006068      0x32c build/default/production/_ext/1865468468/plib_nvic.o
 .debug_line    0x00006394      0x3b2 build/default/production/_ext/1593096446/plib_nvmctrl.o
 .debug_line    0x00006746      0x2db build/default/production/_ext/829342769/plib_pm.o
 .debug_line    0x00006a21      0x32e build/default/production/_ext/1865521619/plib_port.o
 .debug_line    0x00006d4f      0x190 build/default/production/_ext/1865585090/plib_rstc.o
 .debug_line    0x00006edf      0x3eb build/default/production/_ext/60180175/plib_rtc_timer.o
 .debug_line    0x000072ca      0x55b build/default/production/_ext/17022449/plib_sercom4_spi_master.o
 .debug_line    0x00007825      0x24f build/default/production/_ext/1865616679/plib_supc.o
 .debug_line    0x00007a74      0x360 build/default/production/_ext/1827571544/plib_systick.o
 .debug_line    0x00007dd4      0x3d4 build/default/production/_ext/829342655/plib_tc0.o
 .debug_line    0x000081a8      0x30f build/default/production/_ext/1881668453/sys_int.o
 .debug_line    0x000084b7      0x2a9 build/default/production/_ext/1171490990/exceptions.o
 .debug_line    0x00008760      0x2a8 build/default/production/_ext/1171490990/interrupts.o
 .debug_line    0x00008a08      0x1a1 build/default/production/_ext/1171490990/startup_xc32.o
 .debug_line    0x00008ba9      0x643 build/default/production/_ext/1171490990/initialization.o
 .debug_line    0x000091ec      0x2db build/default/production/_ext/1530445869/tasks.o
 .debug_line    0x000094c7      0x77b build/default/production/_ext/1530445869/app.o
 .debug_line    0x00009c42      0x2a8 build/default/production/_ext/1360937237/main.o
 .debug_line    0x00009eea      0x132 c:/program files/microchip/xc32/v3.01/bin/bin/../../lib/gcc/pic32c/8.3.1/../../../../pic32c/lib/thumb/v6-m/nofp\libpic32c.a(data_init.o)
 .debug_line    0x0000a01c       0xa8 c:/program files/microchip/xc32/v3.01/bin/bin/../../lib/gcc/pic32c/8.3.1/thumb/v6-m/nofp\libgcc.a(_udivsi3.o)
 .debug_line    0x0000a0c4       0xaf c:/program files/microchip/xc32/v3.01/bin/bin/../../lib/gcc/pic32c/8.3.1/thumb/v6-m/nofp\libgcc.a(_divsi3.o)
 .debug_line    0x0000a173       0x9c c:/program files/microchip/xc32/v3.01/bin/bin/../../lib/gcc/pic32c/8.3.1/thumb/v6-m/nofp\libgcc.a(_dvmd_tls.o)
 .debug_line    0x0000a20f       0xa7 c:/program files/microchip/xc32/v3.01/bin/bin/../../lib/gcc/pic32c/8.3.1/thumb/v6-m/nofp\libgcc.a(_aeabi_uldivmod.o)
 .debug_line    0x0000a2b6      0x2cb c:/program files/microchip/xc32/v3.01/bin/bin/../../lib/gcc/pic32c/8.3.1/thumb/v6-m/nofp\libgcc.a(_fixunssfsi.o)
 .debug_line    0x0000a581      0x2d0 c:/program files/microchip/xc32/v3.01/bin/bin/../../lib/gcc/pic32c/8.3.1/thumb/v6-m/nofp\libgcc.a(_fixunssfdi.o)
 .debug_line    0x0000a851      0x3d7 c:/program files/microchip/xc32/v3.01/bin/bin/../../lib/gcc/pic32c/8.3.1/thumb/v6-m/nofp\libgcc.a(_udivmoddi4.o)
 .debug_line    0x0000ac28      0x279 c:/program files/microchip/xc32/v3.01/bin/bin/../../lib/gcc/pic32c/8.3.1/thumb/v6-m/nofp\libgcc.a(mulsf3.o)
 .debug_line    0x0000aea1      0x314 c:/program files/microchip/xc32/v3.01/bin/bin/../../lib/gcc/pic32c/8.3.1/thumb/v6-m/nofp\libgcc.a(subsf3.o)
 .debug_line    0x0000b1b5      0x154 c:/program files/microchip/xc32/v3.01/bin/bin/../../lib/gcc/pic32c/8.3.1/thumb/v6-m/nofp\libgcc.a(fixsfsi.o)
 .debug_line    0x0000b309      0x18e c:/program files/microchip/xc32/v3.01/bin/bin/../../lib/gcc/pic32c/8.3.1/thumb/v6-m/nofp\libgcc.a(floatunsisf.o)
 .debug_line    0x0000b497      0x3b3 c:/program files/microchip/xc32/v3.01/bin/bin/../../lib/gcc/pic32c/8.3.1/thumb/v6-m/nofp\libgcc.a(muldf3.o)
 .debug_line    0x0000b84a      0x50d c:/program files/microchip/xc32/v3.01/bin/bin/../../lib/gcc/pic32c/8.3.1/thumb/v6-m/nofp\libgcc.a(subdf3.o)
 .debug_line    0x0000bd57      0x17b c:/program files/microchip/xc32/v3.01/bin/bin/../../lib/gcc/pic32c/8.3.1/thumb/v6-m/nofp\libgcc.a(floatunsidf.o)
 .debug_line    0x0000bed2      0x1b2 c:/program files/microchip/xc32/v3.01/bin/bin/../../lib/gcc/pic32c/8.3.1/thumb/v6-m/nofp\libgcc.a(extendsfdf2.o)
 .debug_line    0x0000c084       0xb1 c:/program files/microchip/xc32/v3.01/bin/bin/../../lib/gcc/pic32c/8.3.1/thumb/v6-m/nofp\libgcc.a(_arm_cmpsf2.o)
 .debug_line    0x0000c135       0xb0 c:/program files/microchip/xc32/v3.01/bin/bin/../../lib/gcc/pic32c/8.3.1/thumb/v6-m/nofp\libgcc.a(_clzsi2.o)
 .debug_line    0x0000c1e5       0xa6 c:/program files/microchip/xc32/v3.01/bin/bin/../../lib/gcc/pic32c/8.3.1/thumb/v6-m/nofp\libgcc.a(_clzdi2.o)
 .debug_line    0x0000c28b      0x2c7 c:/program files/microchip/xc32/v3.01/bin/bin/../../lib/gcc/pic32c/8.3.1/thumb/v6-m/nofp\libgcc.a(_fixunsdfsi.o)
 .debug_line    0x0000c552      0x179 c:/program files/microchip/xc32/v3.01/bin/bin/../../lib/gcc/pic32c/8.3.1/thumb/v6-m/nofp\libgcc.a(eqsf2.o)
 .debug_line    0x0000c6cb      0x1a8 c:/program files/microchip/xc32/v3.01/bin/bin/../../lib/gcc/pic32c/8.3.1/thumb/v6-m/nofp\libgcc.a(gesf2.o)
 .debug_line    0x0000c873      0x1a4 c:/program files/microchip/xc32/v3.01/bin/bin/../../lib/gcc/pic32c/8.3.1/thumb/v6-m/nofp\libgcc.a(lesf2.o)
 .debug_line    0x0000ca17      0x16e c:/program files/microchip/xc32/v3.01/bin/bin/../../lib/gcc/pic32c/8.3.1/thumb/v6-m/nofp\libgcc.a(fixdfsi.o)
 .debug_line    0x0000cb85       0xb4 c:/program files/microchip/xc32/v3.01/bin/bin/../../lib/gcc/pic32c/8.3.1/thumb/v6-m/nofp\libgcc.a(_arm_cmpdf2.o)
 .debug_line    0x0000cc39      0x187 c:/program files/microchip/xc32/v3.01/bin/bin/../../lib/gcc/pic32c/8.3.1/thumb/v6-m/nofp\libgcc.a(eqdf2.o)
 .debug_line    0x0000cdc0      0x1ca c:/program files/microchip/xc32/v3.01/bin/bin/../../lib/gcc/pic32c/8.3.1/thumb/v6-m/nofp\libgcc.a(gedf2.o)
 .debug_line    0x0000cf8a      0x1c6 c:/program files/microchip/xc32/v3.01/bin/bin/../../lib/gcc/pic32c/8.3.1/thumb/v6-m/nofp\libgcc.a(ledf2.o)

.debug_str      0x00000000     0x2078
 .debug_str     0x00000000      0x1d7 build/default/production/_ext/1824788055/radio_driver_hal.o
 .debug_str     0x000001d7       0x78 build/default/production/_ext/1824788055/sleep.o
 .debug_str     0x0000024f       0xf7 build/default/production/_ext/1824788055/sleep_timer.o
 .debug_str     0x00000346       0xd3 build/default/production/_ext/1824788055/sys.o
 .debug_str     0x00000419       0xe4 build/default/production/_ext/1824796116/pmm.o
 .debug_str     0x000004fd      0x1e6 build/default/production/_ext/282161921/sw_timer.o
 .debug_str     0x000006e3       0x3c build/default/production/_ext/1824799377/system_task_manager.o
 .debug_str     0x0000071f      0x10b build/default/production/_ext/22805713/radio_driver_sx1276.o
 .debug_str     0x0000082a      0x11f build/default/production/_ext/1824799587/radio_get_set.o
 .debug_str     0x00000949      0x137 build/default/production/_ext/1824799587/radio_interface.o
 .debug_str     0x00000a80      0x13f build/default/production/_ext/1824799587/radio_lbt.o
 .debug_str     0x00000bbf       0x4c build/default/production/_ext/1824799587/radio_task_manager.o
 .debug_str     0x00000c0b      0x286 build/default/production/_ext/1824799587/radio_transaction.o
 .debug_str     0x00000e91        0xe build/default/production/_ext/60163342/plib_adc.o
 .debug_str     0x00000e9f       0x1e build/default/production/_ext/1984496892/plib_clock.o
 .debug_str     0x00000ebd        0x9 build/default/production/_ext/60167341/plib_eic.o
 .debug_str     0x00000ec6        0x0 build/default/production/_ext/1986646378/plib_evsys.o
 .debug_str     0x00000ec6        0xa build/default/production/_ext/1865468468/plib_nvic.o
 .debug_str     0x00000ed0       0x1f build/default/production/_ext/1593096446/plib_nvmctrl.o
 .debug_str     0x00000eef        0x0 build/default/production/_ext/829342769/plib_pm.o
 .debug_str     0x00000eef        0xb build/default/production/_ext/1865521619/plib_port.o
 .debug_str     0x00000efa        0x0 build/default/production/_ext/1865585090/plib_rstc.o
 .debug_str     0x00000efa       0xc9 build/default/production/_ext/60180175/plib_rtc_timer.o
 .debug_str     0x00000fc3      0x110 build/default/production/_ext/17022449/plib_sercom4_spi_master.o
 .debug_str     0x000010d3        0x0 build/default/production/_ext/1865616679/plib_supc.o
 .debug_str     0x000010d3       0x3c build/default/production/_ext/1827571544/plib_systick.o
 .debug_str     0x0000110f       0xcf build/default/production/_ext/829342655/plib_tc0.o
 .debug_str     0x000011de       0x32 build/default/production/_ext/1881668453/sys_int.o
 .debug_str     0x00001210       0x51 build/default/production/_ext/1171490990/exceptions.o
 .debug_str     0x00001261       0x51 build/default/production/_ext/1171490990/interrupts.o
 .debug_str     0x000012b2       0x2f build/default/production/_ext/1171490990/startup_xc32.o
 .debug_str     0x000012e1      0x172 build/default/production/_ext/1171490990/initialization.o
 .debug_str     0x00001453       0x6b build/default/production/_ext/1530445869/tasks.o
 .debug_str     0x000014be      0x1f8 build/default/production/_ext/1530445869/app.o
 .debug_str     0x000016b6       0x6a build/default/production/_ext/1360937237/main.o
 .debug_str     0x00001720        0x0 c:/program files/microchip/xc32/v3.01/bin/bin/../../lib/gcc/pic32c/8.3.1/../../../../pic32c/lib/thumb/v6-m/nofp\libpic32c.a(data_init.o)
 .debug_str     0x00001720       0xee c:/program files/microchip/xc32/v3.01/bin/bin/../../lib/gcc/pic32c/8.3.1/thumb/v6-m/nofp\libgcc.a(_udivsi3.o)
 .debug_str     0x0000180e       0xee c:/program files/microchip/xc32/v3.01/bin/bin/../../lib/gcc/pic32c/8.3.1/thumb/v6-m/nofp\libgcc.a(_divsi3.o)
 .debug_str     0x000018fc       0xee c:/program files/microchip/xc32/v3.01/bin/bin/../../lib/gcc/pic32c/8.3.1/thumb/v6-m/nofp\libgcc.a(_dvmd_tls.o)
 .debug_str     0x000019ea       0xee c:/program files/microchip/xc32/v3.01/bin/bin/../../lib/gcc/pic32c/8.3.1/thumb/v6-m/nofp\libgcc.a(_aeabi_uldivmod.o)
 .debug_str     0x00001ad8        0x0 c:/program files/microchip/xc32/v3.01/bin/bin/../../lib/gcc/pic32c/8.3.1/thumb/v6-m/nofp\libgcc.a(_fixunssfsi.o)
 .debug_str     0x00001ad8        0x0 c:/program files/microchip/xc32/v3.01/bin/bin/../../lib/gcc/pic32c/8.3.1/thumb/v6-m/nofp\libgcc.a(_fixunssfdi.o)
 .debug_str     0x00001ad8        0x0 c:/program files/microchip/xc32/v3.01/bin/bin/../../lib/gcc/pic32c/8.3.1/thumb/v6-m/nofp\libgcc.a(_udivmoddi4.o)
 .debug_str     0x00001ad8       0x30 c:/program files/microchip/xc32/v3.01/bin/bin/../../lib/gcc/pic32c/8.3.1/thumb/v6-m/nofp\libgcc.a(mulsf3.o)
 .debug_str     0x00001b08       0x2c c:/program files/microchip/xc32/v3.01/bin/bin/../../lib/gcc/pic32c/8.3.1/thumb/v6-m/nofp\libgcc.a(subsf3.o)
 .debug_str     0x00001b34       0x13 c:/program files/microchip/xc32/v3.01/bin/bin/../../lib/gcc/pic32c/8.3.1/thumb/v6-m/nofp\libgcc.a(fixsfsi.o)
 .debug_str     0x00001b47        0x0 c:/program files/microchip/xc32/v3.01/bin/bin/../../lib/gcc/pic32c/8.3.1/thumb/v6-m/nofp\libgcc.a(floatunsisf.o)
 .debug_str     0x00001b47       0x56 c:/program files/microchip/xc32/v3.01/bin/bin/../../lib/gcc/pic32c/8.3.1/thumb/v6-m/nofp\libgcc.a(muldf3.o)
 .debug_str     0x00001b9d       0x2c c:/program files/microchip/xc32/v3.01/bin/bin/../../lib/gcc/pic32c/8.3.1/thumb/v6-m/nofp\libgcc.a(subdf3.o)
 .debug_str     0x00001bc9        0x0 c:/program files/microchip/xc32/v3.01/bin/bin/../../lib/gcc/pic32c/8.3.1/thumb/v6-m/nofp\libgcc.a(floatunsidf.o)
 .debug_str     0x00001bc9        0x0 c:/program files/microchip/xc32/v3.01/bin/bin/../../lib/gcc/pic32c/8.3.1/thumb/v6-m/nofp\libgcc.a(extendsfdf2.o)
 .debug_str     0x00001bc9       0xee c:/program files/microchip/xc32/v3.01/bin/bin/../../lib/gcc/pic32c/8.3.1/thumb/v6-m/nofp\libgcc.a(_arm_cmpsf2.o)
 .debug_str     0x00001cb7       0xee c:/program files/microchip/xc32/v3.01/bin/bin/../../lib/gcc/pic32c/8.3.1/thumb/v6-m/nofp\libgcc.a(_clzsi2.o)
 .debug_str     0x00001da5       0xee c:/program files/microchip/xc32/v3.01/bin/bin/../../lib/gcc/pic32c/8.3.1/thumb/v6-m/nofp\libgcc.a(_clzdi2.o)
 .debug_str     0x00001e93        0x0 c:/program files/microchip/xc32/v3.01/bin/bin/../../lib/gcc/pic32c/8.3.1/thumb/v6-m/nofp\libgcc.a(_fixunsdfsi.o)
 .debug_str     0x00001e93       0x26 c:/program files/microchip/xc32/v3.01/bin/bin/../../lib/gcc/pic32c/8.3.1/thumb/v6-m/nofp\libgcc.a(eqsf2.o)
 .debug_str     0x00001eb9       0x26 c:/program files/microchip/xc32/v3.01/bin/bin/../../lib/gcc/pic32c/8.3.1/thumb/v6-m/nofp\libgcc.a(gesf2.o)
 .debug_str     0x00001edf       0x26 c:/program files/microchip/xc32/v3.01/bin/bin/../../lib/gcc/pic32c/8.3.1/thumb/v6-m/nofp\libgcc.a(lesf2.o)
 .debug_str     0x00001f05       0x13 c:/program files/microchip/xc32/v3.01/bin/bin/../../lib/gcc/pic32c/8.3.1/thumb/v6-m/nofp\libgcc.a(fixdfsi.o)
 .debug_str     0x00001f18       0xee c:/program files/microchip/xc32/v3.01/bin/bin/../../lib/gcc/pic32c/8.3.1/thumb/v6-m/nofp\libgcc.a(_arm_cmpdf2.o)
 .debug_str     0x00002006       0x26 c:/program files/microchip/xc32/v3.01/bin/bin/../../lib/gcc/pic32c/8.3.1/thumb/v6-m/nofp\libgcc.a(eqdf2.o)
 .debug_str     0x0000202c       0x26 c:/program files/microchip/xc32/v3.01/bin/bin/../../lib/gcc/pic32c/8.3.1/thumb/v6-m/nofp\libgcc.a(gedf2.o)
 .debug_str     0x00002052       0x26 c:/program files/microchip/xc32/v3.01/bin/bin/../../lib/gcc/pic32c/8.3.1/thumb/v6-m/nofp\libgcc.a(ledf2.o)

.debug_frame    0x00000000     0x1b04
 .debug_frame   0x00000000      0x29c build/default/production/_ext/1824788055/radio_driver_hal.o
 .debug_frame   0x0000029c       0x28 build/default/production/_ext/1824788055/sleep.o
 .debug_frame   0x000002c4       0x74 build/default/production/_ext/1824788055/sleep_timer.o
 .debug_frame   0x00000338       0xb0 build/default/production/_ext/1824788055/sys.o
 .debug_frame   0x000003e8       0x48 build/default/production/_ext/1824796116/pmm.o
 .debug_frame   0x00000430      0x1fc build/default/production/_ext/282161921/sw_timer.o
 .debug_frame   0x0000062c       0x58 build/default/production/_ext/1824799377/system_task_manager.o
 .debug_frame   0x00000684       0x9c build/default/production/_ext/22805713/radio_driver_sx1276.o
 .debug_frame   0x00000720       0xa0 build/default/production/_ext/1824799587/radio_get_set.o
 .debug_frame   0x000007c0       0xf0 build/default/production/_ext/1824799587/radio_interface.o
 .debug_frame   0x000008b0       0x60 build/default/production/_ext/1824799587/radio_lbt.o
 .debug_frame   0x00000910       0x5c build/default/production/_ext/1824799587/radio_task_manager.o
 .debug_frame   0x0000096c      0x2e8 build/default/production/_ext/1824799587/radio_transaction.o
 .debug_frame   0x00000c54       0xe0 build/default/production/_ext/60163342/plib_adc.o
 .debug_frame   0x00000d34       0x20 build/default/production/_ext/1984496892/plib_clock.o
 .debug_frame   0x00000d54       0x88 build/default/production/_ext/60167341/plib_eic.o
 .debug_frame   0x00000ddc       0x20 build/default/production/_ext/1986646378/plib_evsys.o
 .debug_frame   0x00000dfc       0x50 build/default/production/_ext/1865468468/plib_nvic.o
 .debug_frame   0x00000e4c       0xe4 build/default/production/_ext/1593096446/plib_nvmctrl.o
 .debug_frame   0x00000f30       0x90 build/default/production/_ext/829342769/plib_pm.o
 .debug_frame   0x00000fc0       0xcc build/default/production/_ext/1865521619/plib_port.o
 .debug_frame   0x0000108c       0x50 build/default/production/_ext/1865585090/plib_rstc.o
 .debug_frame   0x000010dc       0xd8 build/default/production/_ext/60180175/plib_rtc_timer.o
 .debug_frame   0x000011b4       0xa8 build/default/production/_ext/17022449/plib_sercom4_spi_master.o
 .debug_frame   0x0000125c       0x68 build/default/production/_ext/1865616679/plib_supc.o
 .debug_frame   0x000012c4       0xd8 build/default/production/_ext/1827571544/plib_systick.o
 .debug_frame   0x0000139c       0xd8 build/default/production/_ext/829342655/plib_tc0.o
 .debug_frame   0x00001474       0x84 build/default/production/_ext/1881668453/sys_int.o
 .debug_frame   0x000014f8       0x30 build/default/production/_ext/1171490990/exceptions.o
 .debug_frame   0x00001528       0x20 build/default/production/_ext/1171490990/interrupts.o
 .debug_frame   0x00001548       0x38 build/default/production/_ext/1171490990/startup_xc32.o
 .debug_frame   0x00001580       0x28 build/default/production/_ext/1171490990/initialization.o
 .debug_frame   0x000015a8       0x28 build/default/production/_ext/1530445869/tasks.o
 .debug_frame   0x000015d0       0xec build/default/production/_ext/1530445869/app.o
 .debug_frame   0x000016bc       0x28 build/default/production/_ext/1360937237/main.o
 .debug_frame   0x000016e4       0x34 c:/program files/microchip/xc32/v3.01/bin/bin/../../lib/gcc/pic32c/8.3.1/../../../../pic32c/lib/thumb/v6-m/nofp\libpic32c.a(data_init.o)
 .debug_frame   0x00001718       0x20 c:/program files/microchip/xc32/v3.01/bin/bin/../../lib/gcc/pic32c/8.3.1/thumb/v6-m/nofp\libgcc.a(_udivsi3.o)
 .debug_frame   0x00001738       0x20 c:/program files/microchip/xc32/v3.01/bin/bin/../../lib/gcc/pic32c/8.3.1/thumb/v6-m/nofp\libgcc.a(_divsi3.o)
 .debug_frame   0x00001758       0x28 c:/program files/microchip/xc32/v3.01/bin/bin/../../lib/gcc/pic32c/8.3.1/thumb/v6-m/nofp\libgcc.a(_fixunssfsi.o)
 .debug_frame   0x00001780       0x2c c:/program files/microchip/xc32/v3.01/bin/bin/../../lib/gcc/pic32c/8.3.1/thumb/v6-m/nofp\libgcc.a(_fixunssfdi.o)
 .debug_frame   0x000017ac       0x3c c:/program files/microchip/xc32/v3.01/bin/bin/../../lib/gcc/pic32c/8.3.1/thumb/v6-m/nofp\libgcc.a(_udivmoddi4.o)
 .debug_frame   0x000017e8       0x38 c:/program files/microchip/xc32/v3.01/bin/bin/../../lib/gcc/pic32c/8.3.1/thumb/v6-m/nofp\libgcc.a(mulsf3.o)
 .debug_frame   0x00001820       0x3c c:/program files/microchip/xc32/v3.01/bin/bin/../../lib/gcc/pic32c/8.3.1/thumb/v6-m/nofp\libgcc.a(subsf3.o)
 .debug_frame   0x0000185c       0x20 c:/program files/microchip/xc32/v3.01/bin/bin/../../lib/gcc/pic32c/8.3.1/thumb/v6-m/nofp\libgcc.a(fixsfsi.o)
 .debug_frame   0x0000187c       0x2c c:/program files/microchip/xc32/v3.01/bin/bin/../../lib/gcc/pic32c/8.3.1/thumb/v6-m/nofp\libgcc.a(floatunsisf.o)
 .debug_frame   0x000018a8       0x3c c:/program files/microchip/xc32/v3.01/bin/bin/../../lib/gcc/pic32c/8.3.1/thumb/v6-m/nofp\libgcc.a(muldf3.o)
 .debug_frame   0x000018e4       0x3c c:/program files/microchip/xc32/v3.01/bin/bin/../../lib/gcc/pic32c/8.3.1/thumb/v6-m/nofp\libgcc.a(subdf3.o)
 .debug_frame   0x00001920       0x2c c:/program files/microchip/xc32/v3.01/bin/bin/../../lib/gcc/pic32c/8.3.1/thumb/v6-m/nofp\libgcc.a(floatunsidf.o)
 .debug_frame   0x0000194c       0x2c c:/program files/microchip/xc32/v3.01/bin/bin/../../lib/gcc/pic32c/8.3.1/thumb/v6-m/nofp\libgcc.a(extendsfdf2.o)
 .debug_frame   0x00001978       0x2c c:/program files/microchip/xc32/v3.01/bin/bin/../../lib/gcc/pic32c/8.3.1/thumb/v6-m/nofp\libgcc.a(_fixunsdfsi.o)
 .debug_frame   0x000019a4       0x2c c:/program files/microchip/xc32/v3.01/bin/bin/../../lib/gcc/pic32c/8.3.1/thumb/v6-m/nofp\libgcc.a(eqsf2.o)
 .debug_frame   0x000019d0       0x30 c:/program files/microchip/xc32/v3.01/bin/bin/../../lib/gcc/pic32c/8.3.1/thumb/v6-m/nofp\libgcc.a(gesf2.o)
 .debug_frame   0x00001a00       0x30 c:/program files/microchip/xc32/v3.01/bin/bin/../../lib/gcc/pic32c/8.3.1/thumb/v6-m/nofp\libgcc.a(lesf2.o)
 .debug_frame   0x00001a30       0x2c c:/program files/microchip/xc32/v3.01/bin/bin/../../lib/gcc/pic32c/8.3.1/thumb/v6-m/nofp\libgcc.a(fixdfsi.o)
 .debug_frame   0x00001a5c       0x38 c:/program files/microchip/xc32/v3.01/bin/bin/../../lib/gcc/pic32c/8.3.1/thumb/v6-m/nofp\libgcc.a(eqdf2.o)
 .debug_frame   0x00001a94       0x38 c:/program files/microchip/xc32/v3.01/bin/bin/../../lib/gcc/pic32c/8.3.1/thumb/v6-m/nofp\libgcc.a(gedf2.o)
 .debug_frame   0x00001acc       0x38 c:/program files/microchip/xc32/v3.01/bin/bin/../../lib/gcc/pic32c/8.3.1/thumb/v6-m/nofp\libgcc.a(ledf2.o)

.stack          0x20000670      0x100
 .stack         0x20000670      0x100 stack

.bss.swTimers%1
                0x20000000      0x190
 .bss.swTimers  0x20000000      0x190 build/default/production/_ext/282161921/sw_timer.o
                0x20000000                swTimers

.bss.radioBuffer%2
                0x20000190      0x10f
 .bss.radioBuffer
                0x20000190      0x10f build/default/production/_ext/1824799587/radio_transaction.o
                0x20000190                radioBuffer

.bss.eicCallbackObject%3
                0x200002a0       0xc0
 .bss.eicCallbackObject
                0x200002a0       0xc0 build/default/production/_ext/60167341/plib_eic.o

.bss.radioConfiguration%4
                0x20000360       0x5c
 .bss.radioConfiguration
                0x20000360       0x5c build/default/production/_ext/22805713/radio_driver_sx1276.o
                0x20000360                radioConfiguration

.bss%5          0x200003bc       0x1c
 .bss           0x200003bc       0x1c c:/program files/microchip/xc32/v3.01/bin/bin/../../lib/gcc/pic32c/8.3.1/thumb/v6-m/nofp/crtbegin.o

.bss.rtcObj%6   0x200003d8        0xc
 .bss.rtcObj    0x200003d8        0xc build/default/production/_ext/60180175/plib_rtc_timer.o

.bss.defaultSleep%7
                0x200003e4        0xc
 .bss.defaultSleep
                0x200003e4        0xc build/default/production/_ext/1530445869/app.o
                0x200003e4                defaultSleep

.bss.sysTimeLastKnown%8
                0x200003f0        0x8
 .bss.sysTimeLastKnown
                0x200003f0        0x8 build/default/production/_ext/282161921/sw_timer.o

.bss.timeOnAir%9
                0x200003f8        0x8
 .bss.timeOnAir
                0x200003f8        0x8 build/default/production/_ext/1824799587/radio_transaction.o

.bss.TC0_CallbackObject%10
                0x20000400        0x8
 .bss.TC0_CallbackObject
                0x20000400        0x8 build/default/production/_ext/829342655/plib_tc0.o

.bss.interruptHandlerDio0%11
                0x20000408        0x4
 .bss.interruptHandlerDio0
                0x20000408        0x4 build/default/production/_ext/1824788055/radio_driver_hal.o

.bss.interruptHandlerDio1%12
                0x2000040c        0x4
 .bss.interruptHandlerDio1
                0x2000040c        0x4 build/default/production/_ext/1824788055/radio_driver_hal.o

.bss.interruptHandlerDio2%13
                0x20000410        0x4
 .bss.interruptHandlerDio2
                0x20000410        0x4 build/default/production/_ext/1824788055/radio_driver_hal.o

.data.cycles_per_ms%14
                0x20000414        0x4
 .data.cycles_per_ms
                0x20000414        0x4 build/default/production/_ext/1824788055/sys.o

.data.cycles_per_us%15
                0x20000418        0x4
 .data.cycles_per_us
                0x20000418        0x4 build/default/production/_ext/1824788055/sys.o

.bss.sleepReq%16
                0x2000041c        0x4
 .bss.sleepReq  0x2000041c        0x4 build/default/production/_ext/1824796116/pmm.o

.bss.compareValue%17
                0x20000420        0x4
 .bss.compareValue
                0x20000420        0x4 build/default/production/_ext/282161921/sw_timer.o

.bss.currentCount%18
                0x20000424        0x4
 .bss.currentCount
                0x20000424        0x4 build/default/production/_ext/282161921/sw_timer.o

.bss.lastCount%19
                0x20000428        0x4
 .bss.lastCount
                0x20000428        0x4 build/default/production/_ext/282161921/sw_timer.o

.bss.sysTimeOvf%20
                0x2000042c        0x4
 .bss.sysTimeOvf
                0x2000042c        0x4 build/default/production/_ext/282161921/sw_timer.o
                0x2000042c                sysTimeOvf

.bss.transmitBufferPtr%21
                0x20000430        0x4
 .bss.transmitBufferPtr
                0x20000430        0x4 build/default/production/_ext/1824799587/radio_transaction.o

.bss.appData%22
                0x20000434        0x4
 .bss.appData   0x20000434        0x4 build/default/production/_ext/1530445869/app.o
                0x20000434                appData

.bss.mlsAppSleepWakeupCallback%23
                0x20000438        0x4
 .bss.mlsAppSleepWakeupCallback
                0x20000438        0x4 build/default/production/_ext/1530445869/app.o
                0x20000438                mlsAppSleepWakeupCallback

.bss%24         0x2000043c        0x4
 .bss           0x2000043c        0x4 c:/program files/microchip/xc32/v3.01/bin/bin/../../lib/gcc/pic32c/8.3.1/../../../../pic32c/lib/thumb/v6-m/nofp\libpic32c.a(data_init.o)

.bss.radioEvents%25
                0x20000440        0x2
 .bss.radioEvents
                0x20000440        0x2 build/default/production/_ext/1824799587/radio_transaction.o
                0x20000440                radioEvents

.bss.rxWindowSize%26
                0x20000442        0x2
 .bss.rxWindowSize
                0x20000442        0x2 build/default/production/_ext/1824799587/radio_transaction.o

.bss.radioCallbackMask%27
                0x20000444        0x1
 .bss.radioCallbackMask
                0x20000444        0x1 build/default/production/_ext/1824799587/radio_transaction.o
                0x20000444                radioCallbackMask

.bss.sysTaskFlag%28
                0x20000446        0x2
 .bss.sysTaskFlag
                0x20000446        0x2 build/default/production/_ext/1824799377/system_task_manager.o

.bss.radioTaskFlags%29
                0x20000448        0x2
 .bss.radioTaskFlags
                0x20000448        0x2 build/default/production/_ext/1824799587/radio_task_manager.o

.bss.instRSSI%30
                0x2000044a        0x2
 .bss.instRSSI  0x2000044a        0x2 build/default/production/_ext/1824799587/radio_transaction.o

.bss.interrupt_flag%31
                0x2000029f        0x1
 .bss.interrupt_flag
                0x2000029f        0x1 build/default/production/_ext/1824788055/sys.o
                0x2000029f                interrupt_flag

.bss.pmmState%32
                0x20000445        0x1
 .bss.pmmState  0x20000445        0x1 build/default/production/_ext/1824796116/pmm.o

.bss.allocatedTimerId%33
                0x2000044c        0x1
 .bss.allocatedTimerId
                0x2000044c        0x1 build/default/production/_ext/282161921/sw_timer.o

.bss.compareCallbackEnabled%34
                0x2000044d        0x1
 .bss.compareCallbackEnabled
                0x2000044d        0x1 build/default/production/_ext/282161921/sw_timer.o

.bss.radioState%35
                0x2000044e        0x1
 .bss.radioState
                0x2000044e        0x1 build/default/production/_ext/1824799587/radio_transaction.o
                0x2000044e                radioState

.bss.txBufferLen%36
                0x2000044f        0x1
 .bss.txBufferLen
                0x2000044f        0x1 build/default/production/_ext/1824799587/radio_transaction.o

.eh_frame%z1    0x00000000        0x0
 .eh_frame      0x00000000        0x0 c:/program files/microchip/xc32/v3.01/bin/bin/../../lib/gcc/pic32c/8.3.1/thumb/v6-m/nofp/crtbegin.o

.config_00804000%37
                0x00804000        0x4
 .config_00804000
                0x00804000        0x4 build/default/production/_ext/1171490990/initialization.o
                0x00804000                __config_00804000

.config_00804004%38
                0x00804004        0x4
 .config_00804004
                0x00804004        0x4 build/default/production/_ext/1171490990/initialization.o
                0x00804004                __config_00804004

.text%39        0x000000d8      0xc18
 .text          0x000000d8      0x734 c:/program files/microchip/xc32/v3.01/bin/bin/../../lib/gcc/pic32c/8.3.1/thumb/v6-m/nofp\libgcc.a(subdf3.o)
                0x000000d8                __aeabi_dsub
 .text          0x0000080c      0x4e4 c:/program files/microchip/xc32/v3.01/bin/bin/../../lib/gcc/pic32c/8.3.1/thumb/v6-m/nofp\libgcc.a(muldf3.o)
                0x0000080c                __aeabi_dmul

.text.Radio_WriteConfiguration%41
                0x00000cf0      0x428
 .text.Radio_WriteConfiguration
                0x00000cf0      0x428 build/default/production/_ext/1824799587/radio_get_set.o
                0x00000cf0                Radio_WriteConfiguration

.text%42        0x00001118      0x348
 .text          0x00001118      0x348 c:/program files/microchip/xc32/v3.01/bin/bin/../../lib/gcc/pic32c/8.3.1/thumb/v6-m/nofp\libgcc.a(subsf3.o)
                0x00001118                __aeabi_fsub

.text.RADIO_RxDoneHandler%43
                0x00001460      0x2bc
 .text.RADIO_RxDoneHandler
                0x00001460      0x2bc build/default/production/_ext/1824799587/radio_transaction.o
                0x00001460                RADIO_RxDoneHandler

.text%44        0x0000171c      0x400
 .text          0x0000171c      0x22c c:/program files/microchip/xc32/v3.01/bin/bin/../../lib/gcc/pic32c/8.3.1/thumb/v6-m/nofp\libgcc.a(mulsf3.o)
                0x0000171c                __aeabi_fmul
 .text          0x00001948      0x1d4 c:/program files/microchip/xc32/v3.01/bin/bin/../../lib/gcc/pic32c/8.3.1/thumb/v6-m/nofp\libgcc.a(_divsi3.o)
                0x00001948                __divsi3
                0x00001948                __aeabi_idiv
                0x00001b14                __aeabi_idivmod

.text.SERCOM4_SPI_WriteRead%46
                0x00001b1c      0x1c0
 .text.SERCOM4_SPI_WriteRead
                0x00001b1c      0x1c0 build/default/production/_ext/17022449/plib_sercom4_spi_master.o
                0x00001b1c                SERCOM4_SPI_WriteRead

.dinit%47       0x00001cdc      0x1c0
 .dinit         0x00001cdc      0x1c0 data_init

.text.RADIO_InitDefaultAttributes%48
                0x00001e9c      0x1bc
 .text.RADIO_InitDefaultAttributes
                0x00001e9c      0x1bc build/default/production/_ext/1824799587/radio_transaction.o
                0x00001e9c                RADIO_InitDefaultAttributes

.text%49        0x00002058      0x1a4
 .text          0x00002058      0x1a4 c:/program files/microchip/xc32/v3.01/bin/bin/../../lib/gcc/pic32c/8.3.1/thumb/v6-m/nofp\libgcc.a(_udivmoddi4.o)
                0x00002058                __udivmoddi4

.text.RADIO_TxHandler%50
                0x000021fc      0x164
 .text.RADIO_TxHandler
                0x000021fc      0x164 build/default/production/_ext/1824799587/radio_transaction.o
                0x000021fc                RADIO_TxHandler

.text.RADIO_FSKPayloadReady%51
                0x00002360      0x144
 .text.RADIO_FSKPayloadReady
                0x00002360      0x144 build/default/production/_ext/1824799587/radio_transaction.o
                0x00002360                RADIO_FSKPayloadReady

.text.CLOCK_Initialize%52
                0x000024a4      0x13c
 .text.CLOCK_Initialize
                0x000024a4      0x13c build/default/production/_ext/1984496892/plib_clock.o
                0x000024a4                CLOCK_Initialize

.text.RADIO_RxHandler%53
                0x000025e0      0x128
 .text.RADIO_RxHandler
                0x000025e0      0x128 build/default/production/_ext/1824799587/radio_transaction.o
                0x000025e0                RADIO_RxHandler

.text%54        0x00002708      0x114
 .text          0x00002708      0x114 c:/program files/microchip/xc32/v3.01/bin/bin/../../lib/gcc/pic32c/8.3.1/thumb/v6-m/nofp\libgcc.a(_udivsi3.o)
                0x00002708                __aeabi_uidiv
                0x00002708                __udivsi3
                0x00002814                __aeabi_uidivmod

.text.RADIO_TxDoneHandler%55
                0x0000281c       0xe0
 .text.RADIO_TxDoneHandler
                0x0000281c       0xe0 build/default/production/_ext/1824799587/radio_transaction.o
                0x0000281c                RADIO_TxDoneHandler

.text.APP_Tasks%56
                0x000028fc       0xe0
 .text.APP_Tasks
                0x000028fc       0xe0 build/default/production/_ext/1530445869/app.o
                0x000028fc                APP_Tasks

.text%57        0x000029dc      0x1bc
 .text          0x000029dc       0xe0 c:/program files/microchip/xc32/v3.01/bin/bin/../../lib/gcc/pic32c/8.3.1/thumb/v6-m/nofp\libgcc.a(gedf2.o)
                0x000029dc                __gedf2
                0x000029dc                __gtdf2
 .text          0x00002abc       0xdc c:/program files/microchip/xc32/v3.01/bin/bin/../../lib/gcc/pic32c/8.3.1/thumb/v6-m/nofp\libgcc.a(ledf2.o)
                0x00002abc                __ledf2
                0x00002abc                __ltdf2

.text.Radio_WriteMode%59
                0x00002b98       0xd6
 .text.Radio_WriteMode
                0x00002b98       0xd6 build/default/production/_ext/22805713/radio_driver_sx1276.o
                0x00002b98                Radio_WriteMode

.text.HAL_RadioInit%60
                0x00002c70       0xd4
 .text.HAL_RadioInit
                0x00002c70       0xd4 build/default/production/_ext/1824788055/radio_driver_hal.o
                0x00002c70                HAL_RadioInit

.text.PMM_Sleep%61
                0x00002d44       0xc4
 .text.PMM_Sleep
                0x00002d44       0xc4 build/default/production/_ext/1824796116/pmm.o
                0x00002d44                PMM_Sleep

.text.RADIO_FSKFifoLevel%62
                0x00002e08       0xb4
 .text.RADIO_FSKFifoLevel
                0x00002e08       0xb4 build/default/production/_ext/1824799587/radio_transaction.o
                0x00002e08                RADIO_FSKFifoLevel

.text.SwTimerStart%63
                0x00002ebc       0xa4
 .text.SwTimerStart
                0x00002ebc       0xa4 build/default/production/_ext/282161921/sw_timer.o
                0x00002ebc                SwTimerStart

.text%64        0x00002f60       0xa4
 .text          0x00002f60       0xa4 c:/program files/microchip/xc32/v3.01/bin/bin/../../lib/gcc/pic32c/8.3.1/thumb/v6-m/nofp\libgcc.a(extendsfdf2.o)
                0x00002f60                __aeabi_f2d

.text.EIC_Initialize%65
                0x00003004       0xa0
 .text.EIC_Initialize
                0x00003004       0xa0 build/default/production/_ext/60167341/plib_eic.o
                0x00003004                EIC_Initialize

.text.SystemTimerSync%66
                0x000030a4       0x9c
 .text.SystemTimerSync
                0x000030a4       0x9c build/default/production/_ext/282161921/sw_timer.o
                0x000030a4                SystemTimerSync

.text%67        0x00003140      0x12c
 .text          0x00003140       0x98 c:/program files/microchip/xc32/v3.01/bin/bin/../../lib/gcc/pic32c/8.3.1/thumb/v6-m/nofp\libgcc.a(gesf2.o)
                0x00003140                __gesf2
                0x00003140                __gtsf2
 .text          0x000031d8       0x94 c:/program files/microchip/xc32/v3.01/bin/bin/../../lib/gcc/pic32c/8.3.1/thumb/v6-m/nofp\libgcc.a(lesf2.o)
                0x000031d8                __ltsf2
                0x000031d8                __lesf2

.text.__pic32c_data_initialization%69
                0x0000326c       0x90
 .text.__pic32c_data_initialization
                0x0000326c       0x90 c:/program files/microchip/xc32/v3.01/bin/bin/../../lib/gcc/pic32c/8.3.1/../../../../pic32c/lib/thumb/v6-m/nofp\libpic32c.a(data_init.o)
                0x0000326c                __pic32c_data_initialization

.text.Radio_LBTScanTimeout%70
                0x000032fc       0x88
 .text.Radio_LBTScanTimeout
                0x000032fc       0x88 build/default/production/_ext/1824799587/radio_lbt.o
                0x000032fc                Radio_LBTScanTimeout

.text%71        0x00003384      0x178
 .text          0x00003384       0x80 c:/program files/microchip/xc32/v3.01/bin/bin/../../lib/gcc/pic32c/8.3.1/thumb/v6-m/nofp\libgcc.a(eqdf2.o)
                0x00003384                __nedf2
                0x00003384                __eqdf2
 .text          0x00003404       0x7c c:/program files/microchip/xc32/v3.01/bin/bin/../../lib/gcc/pic32c/8.3.1/thumb/v6-m/nofp\libgcc.a(floatunsisf.o)
                0x00003404                __aeabi_ui2f
 .text          0x00003480       0x7c c:/program files/microchip/xc32/v3.01/bin/bin/../../lib/gcc/pic32c/8.3.1/thumb/v6-m/nofp\libgcc.a(_arm_cmpdf2.o)
                0x00003480                __aeabi_cdrcmple
                0x00003490                __aeabi_cdcmple
                0x00003490                __aeabi_cdcmpeq
                0x000034a0                __aeabi_dcmpeq
                0x000034ac                __aeabi_dcmplt
                0x000034c0                __aeabi_dcmple
                0x000034d4                __aeabi_dcmpgt
                0x000034e8                __aeabi_dcmpge

.text.RADIO_DIO0%74
                0x000034fc       0x78
 .text.RADIO_DIO0
                0x000034fc       0x78 build/default/production/_ext/1824799587/radio_interface.o
                0x000034fc                RADIO_DIO0

.text.hwTimerIrqHandler%75
                0x00003574       0x74
 .text.hwTimerIrqHandler
                0x00003574       0x74 build/default/production/_ext/282161921/sw_timer.o

.text.RADIO_DIO1%76
                0x000035e8       0x74
 .text.RADIO_DIO1
                0x000035e8       0x74 build/default/production/_ext/1824799587/radio_interface.o
                0x000035e8                RADIO_DIO1

.text%77        0x0000365c       0x74
 .text          0x0000365c       0x74 c:/program files/microchip/xc32/v3.01/bin/bin/../../lib/gcc/pic32c/8.3.1/thumb/v6-m/nofp\libgcc.a(_arm_cmpsf2.o)
                0x0000365c                __aeabi_cfrcmple
                0x00003664                __aeabi_cfcmpeq
                0x00003664                __aeabi_cfcmple
                0x00003674                __aeabi_fcmpeq
                0x00003680                __aeabi_fcmplt
                0x00003694                __aeabi_fcmple
                0x000036a8                __aeabi_fcmpgt
                0x000036bc                __aeabi_fcmpge

.text.RADIO_RxDone%78
                0x000036d0       0x70
 .text.RADIO_RxDone
                0x000036d0       0x70 build/default/production/_ext/1824799587/radio_transaction.o
                0x000036d0                RADIO_RxDone

.text.SwTimerUpdate%79
                0x00003740       0x6c
 .text.SwTimerUpdate
                0x00003740       0x6c build/default/production/_ext/282161921/sw_timer.o

.text.RADIO_FSKPacketSent%80
                0x000037ac       0x6c
 .text.RADIO_FSKPacketSent
                0x000037ac       0x6c build/default/production/_ext/1824799587/radio_transaction.o
                0x000037ac                RADIO_FSKPacketSent

.text%81        0x00003818       0x6c
 .text          0x00003818       0x6c c:/program files/microchip/xc32/v3.01/bin/bin/../../lib/gcc/pic32c/8.3.1/thumb/v6-m/nofp\libgcc.a(fixdfsi.o)
                0x00003818                __aeabi_d2iz

.text.PMM_Wakeup%82
                0x00003884       0x68
 .text.PMM_Wakeup
                0x00003884       0x68 build/default/production/_ext/1824796116/pmm.o
                0x00003884                PMM_Wakeup

.text.RADIO_TaskHandler%83
                0x000038ec       0x68
 .text.RADIO_TaskHandler
                0x000038ec       0x68 build/default/production/_ext/1824799587/radio_task_manager.o
                0x000038ec                RADIO_TaskHandler

.text.RADIO_TxDone%84
                0x00003954       0x68
 .text.RADIO_TxDone
                0x00003954       0x68 build/default/production/_ext/1824799587/radio_transaction.o
                0x00003954                RADIO_TxDone

.text.SYSTEM_RunTasks%85
                0x000039bc       0x64
 .text.SYSTEM_RunTasks
                0x000039bc       0x64 build/default/production/_ext/1824799377/system_task_manager.o
                0x000039bc                SYSTEM_RunTasks

.text.RADIO_FSKFifoEmpty%86
                0x00003a20       0x60
 .text.RADIO_FSKFifoEmpty
                0x00003a20       0x60 build/default/production/_ext/1824799587/radio_transaction.o
                0x00003a20                RADIO_FSKFifoEmpty

.text%87        0x00003a80       0x60
 .text          0x00003a80       0x60 c:/program files/microchip/xc32/v3.01/bin/bin/../../lib/gcc/pic32c/8.3.1/thumb/v6-m/nofp\libgcc.a(floatunsidf.o)
                0x00003a80                __aeabi_ui2d

.text.RADIO_ScanHandler%88
                0x00003ae0       0x5c
 .text.RADIO_ScanHandler
                0x00003ae0       0x5c build/default/production/_ext/1824799587/radio_lbt.o
                0x00003ae0                RADIO_ScanHandler

.text.RADIO_Init%89
                0x00003b3c       0x58
 .text.RADIO_Init
                0x00003b3c       0x58 build/default/production/_ext/1824799587/radio_get_set.o
                0x00003b3c                RADIO_Init

.text.SYS_Initialize%90
                0x00003b94       0x58
 .text.SYS_Initialize
                0x00003b94       0x58 build/default/production/_ext/1171490990/initialization.o
                0x00003b94                SYS_Initialize

.text.RADIO_DIO2%91
                0x00003bec       0x56
 .text.RADIO_DIO2
                0x00003bec       0x56 build/default/production/_ext/1824799587/radio_interface.o
                0x00003bec                RADIO_DIO2

.text.SwTimerReset%92
                0x00003c44       0x54
 .text.SwTimerReset
                0x00003c44       0x54 build/default/production/_ext/282161921/sw_timer.o
                0x00003c44                SwTimerReset

.text.ADC_Initialize%93
                0x00003c98       0x54
 .text.ADC_Initialize
                0x00003c98       0x54 build/default/production/_ext/60163342/plib_adc.o
                0x00003c98                ADC_Initialize

.text.SUPC_Initialize%94
                0x00003cec       0x54
 .text.SUPC_Initialize
                0x00003cec       0x54 build/default/production/_ext/1865616679/plib_supc.o
                0x00003cec                SUPC_Initialize

.text.APP_Initialize%95
                0x00003d40       0x54
 .text.APP_Initialize
                0x00003d40       0x54 build/default/production/_ext/1530445869/app.o
                0x00003d40                APP_Initialize

.text.MlsAppSleep%96
                0x00003d94       0x54
 .text.MlsAppSleep
                0x00003d94       0x54 build/default/production/_ext/1530445869/app.o
                0x00003d94                MlsAppSleep

.text.PORT_Initialize%97
                0x00003de8       0x50
 .text.PORT_Initialize
                0x00003de8       0x50 build/default/production/_ext/1865521619/plib_port.o
                0x00003de8                PORT_Initialize

.text%98        0x00003e38       0x50
 .text          0x00003e38       0x50 c:/program files/microchip/xc32/v3.01/bin/bin/../../lib/gcc/pic32c/8.3.1/thumb/v6-m/nofp\libgcc.a(eqsf2.o)
                0x00003e38                __eqsf2
                0x00003e38                __nesf2

.text.SwTimerNextExpiryDuration%99
                0x00003e88       0x4c
 .text.SwTimerNextExpiryDuration
                0x00003e88       0x4c build/default/production/_ext/282161921/sw_timer.o
                0x00003e88                SwTimerNextExpiryDuration

.text.Radio_WatchdogTimeout%100
                0x00003ed4       0x4c
 .text.Radio_WatchdogTimeout
                0x00003ed4       0x4c build/default/production/_ext/1824799587/radio_transaction.o
                0x00003ed4                Radio_WatchdogTimeout

.text%101       0x00003f20       0x48
 .text          0x00003f20       0x48 c:/program files/microchip/xc32/v3.01/bin/bin/../../lib/gcc/pic32c/8.3.1/thumb/v6-m/nofp/crtbegin.o

.text.EIC_InterruptHandler%102
                0x00003f68       0x48
 .text.EIC_InterruptHandler
                0x00003f68       0x48 build/default/production/_ext/60167341/plib_eic.o
                0x00003f68                EIC_InterruptHandler

.text.Reset_Handler%103
                0x00003fb0       0x48
 .text.Reset_Handler
                0x00003fb0       0x48 build/default/production/_ext/1171490990/startup_xc32.o
                0x00003fb0                Reset_Handler

.text.__libc_init_array%104
                0x00003ff8       0x48
 .text.__libc_init_array
                0x00003ff8       0x48 c:/program files/microchip/xc32/v3.01/bin/bin/../../lib/gcc/pic32c/8.3.1/../../../../pic32c/lib/thumb/v6-m/nofp\libc_nano.a(lib_a-init.o)
                0x00003ff8                __libc_init_array

.text.SwTimersExecute%105
                0x00004040       0x44
 .text.SwTimersExecute
                0x00004040       0x44 build/default/production/_ext/282161921/sw_timer.o
                0x00004040                SwTimersExecute

.text.RADIO_FHSSChangeChannel%106
                0x00004084       0x44
 .text.RADIO_FHSSChangeChannel
                0x00004084       0x44 build/default/production/_ext/22805713/radio_driver_sx1276.o
                0x00004084                RADIO_FHSSChangeChannel

.text.Radio_WriteFrequency%107
                0x000040c8       0x44
 .text.Radio_WriteFrequency
                0x000040c8       0x44 build/default/production/_ext/1824799587/radio_get_set.o
                0x000040c8                Radio_WriteFrequency

.text.TC0_CompareInitialize%108
                0x0000410c       0x44
 .text.TC0_CompareInitialize
                0x0000410c       0x44 build/default/production/_ext/829342655/plib_tc0.o
                0x0000410c                TC0_CompareInitialize

.text.RADIO_FrameWrite%109
                0x00004150       0x40
 .text.RADIO_FrameWrite
                0x00004150       0x40 build/default/production/_ext/1824788055/radio_driver_hal.o
                0x00004150                RADIO_FrameWrite

.text.SwTimerInterrupt%110
                0x00004190       0x40
 .text.SwTimerInterrupt
                0x00004190       0x40 build/default/production/_ext/282161921/sw_timer.o

.text%111       0x000041d0       0x80
 .text          0x000041d0       0x40 c:/program files/microchip/xc32/v3.01/bin/bin/../../lib/gcc/pic32c/8.3.1/thumb/v6-m/nofp\libgcc.a(_aeabi_uldivmod.o)
                0x000041d0                __aeabi_uldivmod
 .text          0x00004210       0x40 c:/program files/microchip/xc32/v3.01/bin/bin/../../lib/gcc/pic32c/8.3.1/thumb/v6-m/nofp\libgcc.a(_fixunssfdi.o)
                0x00004210                __fixunssfdi
                0x00004210                __aeabi_f2ulz

.rodata%113     0x00004250       0x40
 .rodata        0x00004250       0x40 c:/program files/microchip/xc32/v3.01/bin/bin/../../lib/gcc/pic32c/8.3.1/thumb/v6-m/nofp\libgcc.a(mulsf3.o)

.text%114       0x00004290       0x40
 .text          0x00004290       0x40 c:/program files/microchip/xc32/v3.01/bin/bin/../../lib/gcc/pic32c/8.3.1/thumb/v6-m/nofp\libgcc.a(fixsfsi.o)
                0x00004290                __aeabi_f2iz

.rodata%115     0x000042d0       0x40
 .rodata        0x000042d0       0x40 c:/program files/microchip/xc32/v3.01/bin/bin/../../lib/gcc/pic32c/8.3.1/thumb/v6-m/nofp\libgcc.a(muldf3.o)

.text.RADIO_FrameRead%116
                0x00004310       0x3c
 .text.RADIO_FrameRead
                0x00004310       0x3c build/default/production/_ext/1824788055/radio_driver_hal.o
                0x00004310                RADIO_FrameRead

.text.SystemTimerSuspend%117
                0x0000434c       0x3c
 .text.SystemTimerSuspend
                0x0000434c       0x3c build/default/production/_ext/282161921/sw_timer.o
                0x0000434c                SystemTimerSuspend

.text.NVIC_Initialize%118
                0x00004388       0x3c
 .text.NVIC_Initialize
                0x00004388       0x3c build/default/production/_ext/1865468468/plib_nvic.o
                0x00004388                NVIC_Initialize

.text.readMouseTraps%119
                0x000043c4       0x3c
 .text.readMouseTraps
                0x000043c4       0x3c build/default/production/_ext/1530445869/app.o
                0x000043c4                readMouseTraps

.text%120       0x00004400       0x78
 .text          0x00004400       0x3c c:/program files/microchip/xc32/v3.01/bin/bin/../../lib/gcc/pic32c/8.3.1/thumb/v6-m/nofp\libgcc.a(_clzsi2.o)
                0x00004400                __clzsi2
 .text          0x0000443c       0x3c c:/program files/microchip/xc32/v3.01/bin/bin/../../lib/gcc/pic32c/8.3.1/thumb/v6-m/nofp\libgcc.a(_fixunsdfsi.o)
                0x0000443c                __aeabi_d2uiz
                0x0000443c                __fixunsdfsi

.text.delay_init%122
                0x00004478       0x34
 .text.delay_init
                0x00004478       0x34 build/default/production/_ext/1824788055/sys.o
                0x00004478                delay_init

.text.Radio_EnableRfControl%123
                0x000044ac       0x34
 .text.Radio_EnableRfControl
                0x000044ac       0x34 build/default/production/_ext/1824799587/radio_transaction.o
                0x000044ac                Radio_EnableRfControl

.text.Radio_DisableRfControl%124
                0x000044e0       0x34
 .text.Radio_DisableRfControl
                0x000044e0       0x34 build/default/production/_ext/1824799587/radio_transaction.o
                0x000044e0                Radio_DisableRfControl

.text.RADIO_RxTimeout%125
                0x00004514       0x34
 .text.RADIO_RxTimeout
                0x00004514       0x34 build/default/production/_ext/1824799587/radio_transaction.o
                0x00004514                RADIO_RxTimeout

.text.HAL_RadioDeInit%126
                0x00004548       0x30
 .text.HAL_RadioDeInit
                0x00004548       0x30 build/default/production/_ext/1824788055/radio_driver_hal.o
                0x00004548                HAL_RadioDeInit

.text.delay_us%127
                0x00004578       0x30
 .text.delay_us
                0x00004578       0x30 build/default/production/_ext/1824788055/sys.o
                0x00004578                delay_us

.text.delay_ms%128
                0x000045a8       0x30
 .text.delay_ms
                0x000045a8       0x30 build/default/production/_ext/1824788055/sys.o
                0x000045a8                delay_ms

.text%129       0x000045d8       0x30
 .text          0x000045d8       0x30 c:/program files/microchip/xc32/v3.01/bin/bin/../../lib/gcc/pic32c/8.3.1/thumb/v6-m/nofp\libgcc.a(_fixunssfsi.o)
                0x000045d8                __fixunssfsi
                0x000045d8                __aeabi_f2uiz

.text.PM_Initialize%130
                0x00004608       0x2e
 .text.PM_Initialize
                0x00004608       0x2e build/default/production/_ext/829342769/plib_pm.o
                0x00004608                PM_Initialize

.text.RADIO_Reset%131
                0x00004638       0x2c
 .text.RADIO_Reset
                0x00004638       0x2c build/default/production/_ext/1824788055/radio_driver_hal.o
                0x00004638                RADIO_Reset

.text.HAL_RegisterDioInterruptHandler%132
                0x00004664       0x2c
 .text.HAL_RegisterDioInterruptHandler
                0x00004664       0x2c build/default/production/_ext/1824788055/radio_driver_hal.o
                0x00004664                HAL_RegisterDioInterruptHandler

.text.Radio_RxFSKTimeout%133
                0x00004690       0x2c
 .text.Radio_RxFSKTimeout
                0x00004690       0x2c build/default/production/_ext/1824799587/radio_transaction.o
                0x00004690                Radio_RxFSKTimeout

.text.Radio_SetClockInput%134
                0x000046bc       0x2c
 .text.Radio_SetClockInput
                0x000046bc       0x2c build/default/production/_ext/1824799587/radio_transaction.o
                0x000046bc                Radio_SetClockInput

.text.RTC_Initialize%135
                0x000046e8       0x2c
 .text.RTC_Initialize
                0x000046e8       0x2c build/default/production/_ext/60180175/plib_rtc_timer.o
                0x000046e8                RTC_Initialize

.text.RTC_InterruptHandler%136
                0x00004714       0x2c
 .text.RTC_InterruptHandler
                0x00004714       0x2c build/default/production/_ext/60180175/plib_rtc_timer.o
                0x00004714                RTC_InterruptHandler

.text.SERCOM4_SPI_Initialize%137
                0x00004740       0x2c
 .text.SERCOM4_SPI_Initialize
                0x00004740       0x2c build/default/production/_ext/17022449/plib_sercom4_spi_master.o
                0x00004740                SERCOM4_SPI_Initialize

.text.RADIO_RegisterWrite%138
                0x0000476c       0x28
 .text.RADIO_RegisterWrite
                0x0000476c       0x28 build/default/production/_ext/1824788055/radio_driver_hal.o
                0x0000476c                RADIO_RegisterWrite

.text.HAL_EnableRFCtrl%139
                0x00004794       0x28
 .text.HAL_EnableRFCtrl
                0x00004794       0x28 build/default/production/_ext/1824788055/radio_driver_hal.o
                0x00004794                HAL_EnableRFCtrl

.text.SwTimerCreate%140
                0x000047bc       0x28
 .text.SwTimerCreate
                0x000047bc       0x28 build/default/production/_ext/282161921/sw_timer.o
                0x000047bc                SwTimerCreate

.text.RADIO_DIO3%141
                0x000047e4       0x28
 .text.RADIO_DIO3
                0x000047e4       0x28 build/default/production/_ext/1824799587/radio_interface.o
                0x000047e4                RADIO_DIO3

.text.RADIO_DIO4%142
                0x0000480c       0x28
 .text.RADIO_DIO4
                0x0000480c       0x28 build/default/production/_ext/1824799587/radio_interface.o
                0x0000480c                RADIO_DIO4

.text.RADIO_DIO5%143
                0x00004834       0x28
 .text.RADIO_DIO5
                0x00004834       0x28 build/default/production/_ext/1824799587/radio_interface.o
                0x00004834                RADIO_DIO5

.text.RADIO_FSKSyncAddr%144
                0x0000485c       0x28
 .text.RADIO_FSKSyncAddr
                0x0000485c       0x28 build/default/production/_ext/1824799587/radio_transaction.o
                0x0000485c                RADIO_FSKSyncAddr

.text.EIC_CallbackRegister%145
                0x00004884       0x28
 .text.EIC_CallbackRegister
                0x00004884       0x28 build/default/production/_ext/60167341/plib_eic.o
                0x00004884                EIC_CallbackRegister

.text.TC0_Compare32bitCounterGet%146
                0x000048ac       0x28
 .text.TC0_Compare32bitCounterGet
                0x000048ac       0x28 build/default/production/_ext/829342655/plib_tc0.o
                0x000048ac                TC0_Compare32bitCounterGet

.text.HAL_SPISend%147
                0x000048d4       0x24
 .text.HAL_SPISend
                0x000048d4       0x24 build/default/production/_ext/1824788055/radio_driver_hal.o

.text.RADIO_RegisterRead%148
                0x000048f8       0x24
 .text.RADIO_RegisterRead
                0x000048f8       0x24 build/default/production/_ext/1824788055/radio_driver_hal.o
                0x000048f8                RADIO_RegisterRead

.text.SleepTimerStart%149
                0x0000491c       0x24
 .text.SleepTimerStart
                0x0000491c       0x24 build/default/production/_ext/1824788055/sleep_timer.o
                0x0000491c                SleepTimerStart

.text.MlsAppSleepCallback%150
                0x00004940       0x24
 .text.MlsAppSleepCallback
                0x00004940       0x24 build/default/production/_ext/1530445869/app.o
                0x00004940                MlsAppSleepCallback

.text.RADIO_UnhandledInterrupt%151
                0x00004964       0x22
 .text.RADIO_UnhandledInterrupt
                0x00004964       0x22 build/default/production/_ext/1824799587/radio_interface.o
                0x00004964                RADIO_UnhandledInterrupt

.text.HAL_RadioDIO2Callback%152
                0x00004988       0x20
 .text.HAL_RadioDIO2Callback
                0x00004988       0x20 build/default/production/_ext/1824788055/radio_driver_hal.o

.text.HAL_RadioDIO1Callback%153
                0x000049a8       0x20
 .text.HAL_RadioDIO1Callback
                0x000049a8       0x20 build/default/production/_ext/1824788055/radio_driver_hal.o

.text.HAL_RadioDIO0Callback%154
                0x000049c8       0x20
 .text.HAL_RadioDIO0Callback
                0x000049c8       0x20 build/default/production/_ext/1824788055/radio_driver_hal.o

.text.HAL_Radio_resources_init%155
                0x000049e8       0x20
 .text.HAL_Radio_resources_init
                0x000049e8       0x20 build/default/production/_ext/1824788055/radio_driver_hal.o
                0x000049e8                HAL_Radio_resources_init

.text.SwTimerStop%156
                0x00004a08       0x20
 .text.SwTimerStop
                0x00004a08       0x20 build/default/production/_ext/282161921/sw_timer.o
                0x00004a08                SwTimerStop

.text.RADIO_getMappingAndOpmode%157
                0x00004a28       0x20
 .text.RADIO_getMappingAndOpmode
                0x00004a28       0x20 build/default/production/_ext/1824799587/radio_interface.o

.text.radioPostTask%158
                0x00004a48       0x20
 .text.radioPostTask
                0x00004a48       0x20 build/default/production/_ext/1824799587/radio_task_manager.o
                0x00004a48                radioPostTask

.text.SwTimerGetTime%159
                0x00004a68       0x1c
 .text.SwTimerGetTime
                0x00004a68       0x1c build/default/production/_ext/282161921/sw_timer.o
                0x00004a68                SwTimerGetTime

.text.SYSTEM_PostTask%160
                0x00004a84       0x1c
 .text.SYSTEM_PostTask
                0x00004a84       0x1c build/default/production/_ext/1824799377/system_task_manager.o
                0x00004a84                SYSTEM_PostTask

.text.ADC_ConversionStart%161
                0x00004aa0       0x1c
 .text.ADC_ConversionStart
                0x00004aa0       0x1c build/default/production/_ext/60163342/plib_adc.o
                0x00004aa0                ADC_ConversionStart

.text.RTC_Timer32Start%162
                0x00004abc       0x1c
 .text.RTC_Timer32Start
                0x00004abc       0x1c build/default/production/_ext/60180175/plib_rtc_timer.o
                0x00004abc                RTC_Timer32Start

.text.SYSTICK_TimerInitialize%163
                0x00004ad8       0x1c
 .text.SYSTICK_TimerInitialize
                0x00004ad8       0x1c build/default/production/_ext/1827571544/plib_systick.o
                0x00004ad8                SYSTICK_TimerInitialize

.text.TC0_CompareStart%164
                0x00004af4       0x1c
 .text.TC0_CompareStart
                0x00004af4       0x1c build/default/production/_ext/829342655/plib_tc0.o
                0x00004af4                TC0_CompareStart

.text.TC0_CompareStop%165
                0x00004b10       0x1c
 .text.TC0_CompareStop
                0x00004b10       0x1c build/default/production/_ext/829342655/plib_tc0.o
                0x00004b10                TC0_CompareStop

.text.MlsAppResourceInitialize%166
                0x00004b2c       0x1c
 .text.MlsAppResourceInitialize
                0x00004b2c       0x1c build/default/production/_ext/1530445869/app.o
                0x00004b2c                MlsAppResourceInitialize

.text.HAL_DisableRFCtrl%167
                0x00004b48       0x18
 .text.HAL_DisableRFCtrl
                0x00004b48       0x18 build/default/production/_ext/1824788055/radio_driver_hal.o
                0x00004b48                HAL_DisableRFCtrl

.text.HAL_TCXOPowerOn%168
                0x00004b60       0x18
 .text.HAL_TCXOPowerOn
                0x00004b60       0x18 build/default/production/_ext/1824788055/radio_driver_hal.o
                0x00004b60                HAL_TCXOPowerOn

.text.HAL_Sleep%169
                0x00004b78       0x18
 .text.HAL_Sleep
                0x00004b78       0x18 build/default/production/_ext/1824788055/sleep.o
                0x00004b78                HAL_Sleep

.text.Radio_ResetClockInput%170
                0x00004b90       0x18
 .text.Radio_ResetClockInput
                0x00004b90       0x18 build/default/production/_ext/1824799587/radio_transaction.o
                0x00004b90                Radio_ResetClockInput

.text.ADC_Enable%171
                0x00004ba8       0x18
 .text.ADC_Enable
                0x00004ba8       0x18 build/default/production/_ext/60163342/plib_adc.o
                0x00004ba8                ADC_Enable

.text.ADC_Disable%172
                0x00004bc0       0x18
 .text.ADC_Disable
                0x00004bc0       0x18 build/default/production/_ext/60163342/plib_adc.o
                0x00004bc0                ADC_Disable

.text.TC0_Compare32bitMatch0Set%173
                0x00004bd8       0x18
 .text.TC0_Compare32bitMatch0Set
                0x00004bd8       0x18 build/default/production/_ext/829342655/plib_tc0.o
                0x00004bd8                TC0_Compare32bitMatch0Set

.text%174       0x00004bf0       0x18
 .text          0x00004bf0       0x18 c:/program files/microchip/xc32/v3.01/bin/bin/../../lib/gcc/pic32c/8.3.1/thumb/v6-m/nofp\libgcc.a(_clzdi2.o)
                0x00004bf0                __clzdi2

.text.Radio_ReadFSKRssi%175
                0x00004c08       0x16
 .text.Radio_ReadFSKRssi
                0x00004c08       0x16 build/default/production/_ext/22805713/radio_driver_sx1276.o
                0x00004c08                Radio_ReadFSKRssi

.text.system_leave_critical_section%176
                0x00004c20       0x14
 .text.system_leave_critical_section
                0x00004c20       0x14 build/default/production/_ext/1824788055/sys.o
                0x00004c20                system_leave_critical_section

.text.SYSTEM_ReadyToSleep%177
                0x00004c34       0x14
 .text.SYSTEM_ReadyToSleep
                0x00004c34       0x14 build/default/production/_ext/1824799377/system_task_manager.o
                0x00004c34                SYSTEM_ReadyToSleep

.rodata.taskHandlers%178
                0x00004c48       0x14
 .rodata.taskHandlers
                0x00004c48       0x14 build/default/production/_ext/1824799377/system_task_manager.o

.rodata.radioTaskHandlers%179
                0x00004c5c       0x14
 .rodata.radioTaskHandlers
                0x00004c5c       0x14 build/default/production/_ext/1824799587/radio_task_manager.o

.text.NVIC_INT_Restore%180
                0x00004c70       0x14
 .text.NVIC_INT_Restore
                0x00004c70       0x14 build/default/production/_ext/1865468468/plib_nvic.o
                0x00004c70                NVIC_INT_Restore

.text.PM_StandbyModeEnter%181
                0x00004c84       0x14
 .text.PM_StandbyModeEnter
                0x00004c84       0x14 build/default/production/_ext/829342769/plib_pm.o
                0x00004c84                PM_StandbyModeEnter

.text.PM_BackupModeEnter%182
                0x00004c98       0x14
 .text.PM_BackupModeEnter
                0x00004c98       0x14 build/default/production/_ext/829342769/plib_pm.o
                0x00004c98                PM_BackupModeEnter

.text.RTC_Timer32CounterSet%183
                0x00004cac       0x14
 .text.RTC_Timer32CounterSet
                0x00004cac       0x14 build/default/production/_ext/60180175/plib_rtc_timer.o
                0x00004cac                RTC_Timer32CounterSet

.text.RTC_Timer32CompareSet%184
                0x00004cc0       0x14
 .text.RTC_Timer32CompareSet
                0x00004cc0       0x14 build/default/production/_ext/60180175/plib_rtc_timer.o
                0x00004cc0                RTC_Timer32CompareSet

.text.RTC_Timer32CounterGet%185
                0x00004cd4       0x14
 .text.RTC_Timer32CounterGet
                0x00004cd4       0x14 build/default/production/_ext/60180175/plib_rtc_timer.o
                0x00004cd4                RTC_Timer32CounterGet

.text.SYSTICK_TimerStart%186
                0x00004ce8       0x14
 .text.SYSTICK_TimerStart
                0x00004ce8       0x14 build/default/production/_ext/1827571544/plib_systick.o
                0x00004ce8                SYSTICK_TimerStart

.text.TC0_Compare32bitCounterSet%187
                0x00004cfc       0x14
 .text.TC0_Compare32bitCounterSet
                0x00004cfc       0x14 build/default/production/_ext/829342655/plib_tc0.o
                0x00004cfc                TC0_Compare32bitCounterSet

.rodata.APP_Tasks%188
                0x00004d10       0x14
 .rodata.APP_Tasks
                0x00004d10       0x14 build/default/production/_ext/1530445869/app.o

.text.NVIC_INT_Disable%189
                0x00004d24       0x12
 .text.NVIC_INT_Disable
                0x00004d24       0x12 build/default/production/_ext/1865468468/plib_nvic.o
                0x00004d24                NVIC_INT_Disable

.text.HAL_TCXOPowerOff%190
                0x00004d38       0x10
 .text.HAL_TCXOPowerOff
                0x00004d38       0x10 build/default/production/_ext/1824788055/radio_driver_hal.o
                0x00004d38                HAL_TCXOPowerOff

.text.SleepTimerInit%191
                0x00004d48       0x10
 .text.SleepTimerInit
                0x00004d48       0x10 build/default/production/_ext/1824788055/sleep_timer.o
                0x00004d48                SleepTimerInit

.text.system_enter_critical_section%192
                0x00004d58       0x10
 .text.system_enter_critical_section
                0x00004d58       0x10 build/default/production/_ext/1824788055/sys.o
                0x00004d58                system_enter_critical_section

.text.RADIO_SetCallbackBitmask%193
                0x00004d68       0x10
 .text.RADIO_SetCallbackBitmask
                0x00004d68       0x10 build/default/production/_ext/1824799587/radio_transaction.o
                0x00004d68                RADIO_SetCallbackBitmask

.text.ADC_ConversionSequenceIsFinished%194
                0x00004d78       0x10
 .text.ADC_ConversionSequenceIsFinished
                0x00004d78       0x10 build/default/production/_ext/60163342/plib_adc.o
                0x00004d78                ADC_ConversionSequenceIsFinished

.text.EIC_InterruptEnable%195
                0x00004d88       0x10
 .text.EIC_InterruptEnable
                0x00004d88       0x10 build/default/production/_ext/60167341/plib_eic.o
                0x00004d88                EIC_InterruptEnable

.text.EIC_InterruptDisable%196
                0x00004d98       0x10
 .text.EIC_InterruptDisable
                0x00004d98       0x10 build/default/production/_ext/60167341/plib_eic.o
                0x00004d98                EIC_InterruptDisable

.text.SUPC_DisableBod%197
                0x00004da8       0x10
 .text.SUPC_DisableBod
                0x00004da8       0x10 build/default/production/_ext/1865616679/plib_supc.o
                0x00004da8                SUPC_DisableBod

.text.SYSTICK_TimerPeriodHasExpired%198
                0x00004db8       0x10
 .text.SYSTICK_TimerPeriodHasExpired
                0x00004db8       0x10 build/default/production/_ext/1827571544/plib_systick.o
                0x00004db8                SYSTICK_TimerPeriodHasExpired

.text.MlsAppResourceDeinitialize%199
                0x00004dc8       0x10
 .text.MlsAppResourceDeinitialize
                0x00004dc8       0x10 build/default/production/_ext/1530445869/app.o
                0x00004dc8                MlsAppResourceDeinitialize

.text.trapTriggerCallback%200
                0x00004dd8        0xe
 .text.trapTriggerCallback
                0x00004dd8        0xe build/default/production/_ext/1530445869/app.o

.text.main%201  0x00004de6        0xe
 .text.main     0x00004de6        0xe build/default/production/_ext/1360937237/main.o
                0x00004de6                main

.text.SleepTimerStop%202
                0x00004df4        0xc
 .text.SleepTimerStop
                0x00004df4        0xc build/default/production/_ext/1824788055/sleep_timer.o
                0x00004df4                SleepTimerStop

.text.RADIO_GetState%203
                0x00004e00        0xc
 .text.RADIO_GetState
                0x00004e00        0xc build/default/production/_ext/1824799587/radio_transaction.o
                0x00004e00                RADIO_GetState

.text.ADC_ConversionResultGet%204
                0x00004e0c        0xc
 .text.ADC_ConversionResultGet
                0x00004e0c        0xc build/default/production/_ext/60163342/plib_adc.o
                0x00004e0c                ADC_ConversionResultGet

.text.ADC_InterruptsClear%205
                0x00004e18        0xc
 .text.ADC_InterruptsClear
                0x00004e18        0xc build/default/production/_ext/60163342/plib_adc.o
                0x00004e18                ADC_InterruptsClear

.text.NVMCTRL_Initialize%206
                0x00004e24        0xc
 .text.NVMCTRL_Initialize
                0x00004e24        0xc build/default/production/_ext/1593096446/plib_nvmctrl.o
                0x00004e24                NVMCTRL_Initialize

.text.PORT_GroupWrite%207
                0x00004e30        0xc
 .text.PORT_GroupWrite
                0x00004e30        0xc build/default/production/_ext/1865521619/plib_port.o
                0x00004e30                PORT_GroupWrite

.text.RTC_Timer32InterruptEnable%208
                0x00004e3c        0xc
 .text.RTC_Timer32InterruptEnable
                0x00004e3c        0xc build/default/production/_ext/60180175/plib_rtc_timer.o
                0x00004e3c                RTC_Timer32InterruptEnable

.text.RTC_Timer32InterruptDisable%209
                0x00004e48        0xc
 .text.RTC_Timer32InterruptDisable
                0x00004e48        0xc build/default/production/_ext/60180175/plib_rtc_timer.o
                0x00004e48                RTC_Timer32InterruptDisable

.text.RTC_Timer32CallbackRegister%210
                0x00004e54        0xc
 .text.RTC_Timer32CallbackRegister
                0x00004e54        0xc build/default/production/_ext/60180175/plib_rtc_timer.o
                0x00004e54                RTC_Timer32CallbackRegister

.text.SYSTICK_TimerPeriodSet%211
                0x00004e60        0xc
 .text.SYSTICK_TimerPeriodSet
                0x00004e60        0xc build/default/production/_ext/1827571544/plib_systick.o
                0x00004e60                SYSTICK_TimerPeriodSet

.text.TC0_CompareCallbackRegister%212
                0x00004e6c        0xc
 .text.TC0_CompareCallbackRegister
                0x00004e6c        0xc build/default/production/_ext/829342655/plib_tc0.o
                0x00004e6c                TC0_CompareCallbackRegister

.text.SYS_Tasks%213
                0x00004e78        0xc
 .text.SYS_Tasks
                0x00004e78        0xc build/default/production/_ext/1530445869/tasks.o
                0x00004e78                SYS_Tasks

.text.HAL_DisbleDIO0Interrupt%214
                0x00004e84        0xa
 .text.HAL_DisbleDIO0Interrupt
                0x00004e84        0xa build/default/production/_ext/1824788055/radio_driver_hal.o
                0x00004e84                HAL_DisbleDIO0Interrupt

.text.TIMER_TaskHandler%215
                0x00004e8e        0xa
 .text.TIMER_TaskHandler
                0x00004e8e        0xa build/default/production/_ext/282161921/sw_timer.o
                0x00004e8e                TIMER_TaskHandler

.text.SleepTimerGetElapsedTime%216
                0x00004e98        0x8
 .text.SleepTimerGetElapsedTime
                0x00004e98        0x8 build/default/production/_ext/1824788055/sleep_timer.o
                0x00004e98                SleepTimerGetElapsedTime

.text.SystemBlockingWaitMs%217
                0x00004ea0        0x8
 .text.SystemBlockingWaitMs
                0x00004ea0        0x8 build/default/production/_ext/1824788055/sys.o
                0x00004ea0                SystemBlockingWaitMs

.text.NVIC_INT_Enable%218
                0x00004ea8        0x8
 .text.NVIC_INT_Enable
                0x00004ea8        0x8 build/default/production/_ext/1865468468/plib_nvic.o
                0x00004ea8                NVIC_INT_Enable

.text.SYS_INT_Enable%219
                0x00004eb0        0x8
 .text.SYS_INT_Enable
                0x00004eb0        0x8 build/default/production/_ext/1881668453/sys_int.o
                0x00004eb0                SYS_INT_Enable

.text.SYS_INT_Disable%220
                0x00004eb8        0x8
 .text.SYS_INT_Disable
                0x00004eb8        0x8 build/default/production/_ext/1881668453/sys_int.o
                0x00004eb8                SYS_INT_Disable

.text.SYS_INT_Restore%221
                0x00004ec0        0x8
 .text.SYS_INT_Restore
                0x00004ec0        0x8 build/default/production/_ext/1881668453/sys_int.o
                0x00004ec0                SYS_INT_Restore

.text.SYSTICK_TimerFrequencyGet%222
                0x00004ec8        0x6
 .text.SYSTICK_TimerFrequencyGet
                0x00004ec8        0x6 build/default/production/_ext/1827571544/plib_systick.o
                0x00004ec8                SYSTICK_TimerFrequencyGet

.text.HAL_GetRadioClkStabilizationDelay%223
                0x00004ece        0x4
 .text.HAL_GetRadioClkStabilizationDelay
                0x00004ece        0x4 build/default/production/_ext/1824788055/radio_driver_hal.o
                0x00004ece                HAL_GetRadioClkStabilizationDelay

.text.HAL_GetRadioClkSrc%224
                0x00004ed2        0x4
 .text.HAL_GetRadioClkSrc
                0x00004ed2        0x4 build/default/production/_ext/1824788055/radio_driver_hal.o
                0x00004ed2                HAL_GetRadioClkSrc

.text%225       0x00004ed8        0x4
 .text          0x00004ed8        0x4 c:/program files/microchip/xc32/v3.01/bin/bin/../../lib/gcc/pic32c/8.3.1/thumb/v6-m/nofp\libgcc.a(_dvmd_tls.o)
                0x00004ed8                __aeabi_idiv0
                0x00004ed8                __aeabi_ldiv0

.text.EVSYS_Initialize%226
                0x00002c6e        0x2
 .text.EVSYS_Initialize
                0x00002c6e        0x2 build/default/production/_ext/1986646378/plib_evsys.o
                0x00002c6e                EVSYS_Initialize

.text.RSTC_Initialize%227
                0x00003c42        0x2
 .text.RSTC_Initialize
                0x00003c42        0x2 build/default/production/_ext/1865585090/plib_rstc.o
                0x00003c42                RSTC_Initialize

.text.NonMaskableInt_Handler%228
                0x00004636        0x2
 .text.NonMaskableInt_Handler
                0x00004636        0x2 build/default/production/_ext/1171490990/exceptions.o
                0x00004636                NonMaskableInt_Handler

.text.HardFault_Handler%229
                0x00004986        0x2
 .text.HardFault_Handler
                0x00004986        0x2 build/default/production/_ext/1171490990/exceptions.o
                0x00004986                HardFault_Handler

.text.Dummy_Handler%230
                0x00004c1e        0x2
 .text.Dummy_Handler
                0x00004c1e        0x2 build/default/production/_ext/1171490990/interrupts.o
                0x00004c1e                SVCall_Handler
                0x00004c1e                DMAC_Handler
                0x00004c1e                TRNG_Handler
                0x00004c1e                TC2_Handler
                0x00004c1e                AC_Handler
                0x00004c1e                SysTick_Handler
                0x00004c1e                PendSV_Handler
                0x00004c1e                SERCOM1_Handler
                0x00004c1e                ADC_Handler
                0x00004c1e                TCC1_Handler
                0x00004c1e                SERCOM2_Handler
                0x00004c1e                TCC0_Handler
                0x00004c1e                RTC_Handler
                0x00004c1e                EIC_Handler
                0x00004c1e                WDT_Handler
                0x00004c1e                TC4_Handler
                0x00004c1e                TC1_Handler
                0x00004c1e                USB_Handler
                0x00004c1e                TC3_Handler
                0x00004c1e                Dummy_Handler
                0x00004c1e                SERCOM5_Handler
                0x00004c1e                TCC2_Handler
                0x00004c1e                EVSYS_Handler
                0x00004c1e                SERCOM3_Handler
                0x00004c1e                SERCOM4_Handler
                0x00004c1e                NVMCTRL_Handler
                0x00004c1e                SYSTEM_Handler
                0x00004c1e                SERCOM0_Handler
                0x00004c1e                PTC_Handler
                0x00004c1e                AES_Handler

.text.Dummy_App_Func%231
                0x00004d36        0x2
 .text.Dummy_App_Func
                0x00004d36        0x2 build/default/production/_ext/1171490990/startup_xc32.o
                0x00004d36                _on_reset
                0x00004d36                _on_bootstrap
                0x00004d36                __xc32_on_reset
                0x00004d36                Dummy_App_Func
                0x00004d36                __xc32_on_bootstrap
